///////////////////////////////////////////////////////////////////////////////
//                                                                            /
//                                                      16/Aug/2015  08:45:42 /
// IAR ANSI C/C++ Compiler V6.30.6.23336/W32 EVALUATION for ARM               /
// Copyright 1999-2012 IAR Systems AB.                                        /
//                                                                            /
//    Cpu mode     =  thumb                                                   /
//    Endian       =  little                                                  /
//    Source file  =  C:\Users\Ping\Desktop\K60_TFT144_SPI\src\drivers\TFT\GU /
//                    I.c                                                     /
//    Command line =  C:\Users\Ping\Desktop\K60_TFT144_SPI\src\drivers\TFT\GU /
//                    I.c -D IAR -D TWR_K60N512 -lCN                          /
//                    C:\Users\Ping\Desktop\K60_TFT144_SPI\build\iar\hello_wo /
//                    rld\RAM_128KB\List\ -lB C:\Users\Ping\Desktop\K60_TFT14 /
//                    4_SPI\build\iar\hello_world\RAM_128KB\List\ -o          /
//                    C:\Users\Ping\Desktop\K60_TFT144_SPI\build\iar\hello_wo /
//                    rld\RAM_128KB\Obj\ --no_cse --no_unroll --no_inline     /
//                    --no_code_motion --no_tbaa --no_clustering              /
//                    --no_scheduling --debug --endian=little                 /
//                    --cpu=Cortex-M4 -e --fpu=None --dlib_config             /
//                    "C:\Program Files (x86)\IAR Systems\Embedded Workbench  /
//                    6.0 Evaluation\arm\INC\c\DLib_Config_Normal.h" -I       /
//                    C:\Users\Ping\Desktop\K60_TFT144_SPI\build\iar\hello_wo /
//                    rld\..\..\..\src\projects\hello_world\ -I               /
//                    C:\Users\Ping\Desktop\K60_TFT144_SPI\build\iar\hello_wo /
//                    rld\..\..\..\src\common\ -I                             /
//                    C:\Users\Ping\Desktop\K60_TFT144_SPI\build\iar\hello_wo /
//                    rld\..\..\..\src\cpu\ -I C:\Users\Ping\Desktop\K60_TFT1 /
//                    44_SPI\build\iar\hello_world\..\..\..\src\cpu\headers\  /
//                    -I C:\Users\Ping\Desktop\K60_TFT144_SPI\build\iar\hello /
//                    _world\..\..\..\src\drivers\adc16\ -I                   /
//                    C:\Users\Ping\Desktop\K60_TFT144_SPI\build\iar\hello_wo /
//                    rld\..\..\..\src\drivers\enet\ -I                       /
//                    C:\Users\Ping\Desktop\K60_TFT144_SPI\build\iar\hello_wo /
//                    rld\..\..\..\src\drivers\pmc\ -I                        /
//                    C:\Users\Ping\Desktop\K60_TFT144_SPI\build\iar\hello_wo /
//                    rld\..\..\..\src\drivers\rtc\ -I                        /
//                    C:\Users\Ping\Desktop\K60_TFT144_SPI\build\iar\hello_wo /
//                    rld\..\..\..\src\drivers\lptmr\ -I                      /
//                    C:\Users\Ping\Desktop\K60_TFT144_SPI\build\iar\hello_wo /
//                    rld\..\..\..\src\drivers\uart\ -I                       /
//                    C:\Users\Ping\Desktop\K60_TFT144_SPI\build\iar\hello_wo /
//                    rld\..\..\..\src\drivers\mcg\ -I                        /
//                    C:\Users\Ping\Desktop\K60_TFT144_SPI\build\iar\hello_wo /
//                    rld\..\..\..\src\drivers\wdog\ -I                       /
//                    C:\Users\Ping\Desktop\K60_TFT144_SPI\build\iar\hello_wo /
//                    rld\..\..\..\src\platforms\ -I                          /
//                    C:\Users\Ping\Desktop\K60_TFT144_SPI\build\iar\hello_wo /
//                    rld\..\..\..\src\drivers\ftm\ -I                        /
//                    C:\Users\Ping\Desktop\K60_TFT144_SPI\build\iar\hello_wo /
//                    rld\..\..\..\src\drivers\SPI\ -I                        /
//                    C:\Users\Ping\Desktop\K60_TFT144_SPI\build\iar\hello_wo /
//                    rld\..\..\..\src\drivers\OLED\ -I                       /
//                    C:\Users\Ping\Desktop\K60_TFT144_SPI\build\iar\hello_wo /
//                    rld\..\..\..\src\drivers\TFT\ -I                        /
//                    C:\Users\Ping\Desktop\K60_TFT144_SPI\build\iar\hello_wo /
//                    rld\..\ -On --use_c++_inline                            /
//    List file    =  C:\Users\Ping\Desktop\K60_TFT144_SPI\build\iar\hello_wo /
//                    rld\RAM_128KB\List\GUI.s                                /
//                                                                            /
//                                                                            /
///////////////////////////////////////////////////////////////////////////////

        NAME GUI

        #define SHT_PROGBITS 0x1

        EXTERN BACK_COLOR
        EXTERN LCD_DrawPoint
        EXTERN LCD_SetCursor
        EXTERN LCD_SetWindows
        EXTERN LCD_WR_DATA
        EXTERN LCD_WR_DATA_16Bit
        EXTERN POINT_COLOR
        EXTERN lcddev
        EXTERN strlen

        PUBLIC GUI_DrawFont16
        PUBLIC GUI_DrawFont24
        PUBLIC GUI_DrawFont32
        PUBLIC GUI_DrawPoint
        PUBLIC Gui_Drawbmp16
        PUBLIC Gui_StrCenter
        PUBLIC LCD_DrawFillRectangle
        PUBLIC LCD_DrawLine
        PUBLIC LCD_DrawRectangle
        PUBLIC LCD_Fill
        PUBLIC LCD_ShowChar
        PUBLIC LCD_ShowNum
        PUBLIC LCD_ShowNum2412
        PUBLIC LCD_ShowString
        PUBLIC Show_Str
        PUBLIC _draw_circle_8
        PUBLIC asc2_1206
        PUBLIC asc2_1608
        PUBLIC asc2_2412
        PUBLIC gui_circle
        PUBLIC mypow
        PUBLIC tfont16
        PUBLIC tfont24
        PUBLIC tfont32

// C:\Users\Ping\Desktop\K60_TFT144_SPI\src\drivers\TFT\GUI.c
//    1 #include "lcd.h"
//    2 //#include "string.h"
//    3 #include "font.h" 

        SECTION `.rodata`:CONST:REORDER:NOROOT(2)
// __absolute unsigned char const asc2_1206[95][12]
asc2_1206:
        DATA
        DC8 0, 0, 0, 0, 0, 0, 0, 0, 0, 0, 0, 0, 0, 0, 4, 4, 4, 4, 4, 4, 0, 4, 0
        DC8 0, 0, 20, 10, 10, 0, 0, 0, 0, 0, 0, 0, 0, 0, 0, 20, 20, 63, 20, 10
        DC8 63, 10, 10, 0, 0, 0, 4, 30, 21, 5, 6, 12, 20, 21, 15, 4, 0, 0, 0
        DC8 18, 21, 13, 10, 20, 44, 42, 18, 0, 0, 0, 0, 4, 10, 10, 30, 21, 21
        DC8 9, 54, 0, 0, 0, 2, 2, 1, 0, 0, 0, 0, 0, 0, 0, 0, 0, 32, 16, 8, 8, 8
        DC8 8, 8, 8, 16, 32, 0, 0, 2, 4, 8, 8, 8, 8, 8, 8, 4, 2, 0, 0, 0, 0, 4
        DC8 21, 14, 14, 21, 4, 0, 0, 0, 0, 0, 4, 4, 4, 31, 4, 4, 4, 0, 0, 0, 0
        DC8 0, 0, 0, 0, 0, 0, 0, 0, 2, 2, 1, 0, 0, 0, 0, 0, 31, 0, 0, 0, 0, 0
        DC8 0, 0, 0, 0, 0, 0, 0, 0, 0, 0, 2, 0, 0, 0, 16, 8, 8, 8, 4, 4, 2, 2
        DC8 2, 1, 0, 0, 0, 14, 17, 17, 17, 17, 17, 17, 14, 0, 0, 0, 0, 4, 6, 4
        DC8 4, 4, 4, 4, 14, 0, 0, 0, 0, 14, 17, 17, 8, 4, 2, 1, 31, 0, 0, 0, 0
        DC8 14, 17, 16, 12, 16, 16, 17, 14, 0, 0, 0, 0, 8, 12, 10, 10, 9, 30, 8
        DC8 24, 0, 0, 0, 0, 31, 1, 1, 15, 16, 16, 17, 14, 0, 0, 0, 0, 14, 9, 1
        DC8 15, 17, 17, 17, 14, 0, 0, 0, 0, 31, 9, 8, 4, 4, 4, 4, 4, 0, 0, 0, 0
        DC8 14, 17, 17, 14, 17, 17, 17, 14, 0, 0, 0, 0, 14, 17, 17, 17, 30, 16
        DC8 18, 14, 0, 0, 0, 0, 0, 0, 4, 0, 0, 0, 0, 4, 0, 0, 0, 0, 0, 0, 0, 4
        DC8 0, 0, 0, 4, 4, 0, 0, 32, 16, 8, 4, 2, 4, 8, 16, 32, 0, 0, 0, 0, 0
        DC8 0, 31, 0, 0, 31, 0, 0, 0, 0, 0, 2, 4, 8, 16, 32, 16, 8, 4, 2, 0, 0
        DC8 0, 0, 14, 17, 17, 8, 4, 4, 0, 4, 0, 0, 0, 0, 14, 17, 25, 21, 21, 29
        DC8 1, 30, 0, 0, 0, 0, 4, 4, 12, 10, 10, 30, 18, 51, 0, 0, 0, 0, 15, 18
        DC8 18, 14, 18, 18, 18, 15, 0, 0, 0, 0, 30, 17, 1, 1, 1, 1, 17, 14, 0
        DC8 0, 0, 0, 15, 18, 18, 18, 18, 18, 18, 15, 0, 0, 0, 0, 31, 18, 10, 14
        DC8 10, 2, 18, 31, 0, 0, 0, 0, 31, 18, 10, 14, 10, 2, 2, 7, 0, 0, 0, 0
        DC8 28, 18, 1, 1, 57, 17, 18, 12, 0, 0, 0, 0, 51, 18, 18, 30, 18, 18
        DC8 18, 51, 0, 0, 0, 0, 31, 4, 4, 4, 4, 4, 4, 31, 0, 0, 0, 0, 62, 8, 8
        DC8 8, 8, 8, 8, 9, 7, 0, 0, 0, 55, 18, 10, 6, 10, 10, 18, 55, 0, 0, 0
        DC8 0, 7, 2, 2, 2, 2, 2, 34, 63, 0, 0, 0, 0, 27, 27, 27, 27, 21, 21, 21
        DC8 21, 0, 0, 0, 0, 59, 18, 22, 22, 26, 26, 18, 23, 0, 0, 0, 0, 14, 17
        DC8 17, 17, 17, 17, 17, 14, 0, 0, 0, 0, 15, 18, 18, 14, 2, 2, 2, 7, 0
        DC8 0, 0, 0, 14, 17, 17, 17, 17, 23, 25, 14, 24, 0, 0, 0, 15, 18, 18
        DC8 14, 10, 18, 18, 55, 0, 0, 0, 0, 30, 17, 1, 6, 8, 16, 17, 15, 0, 0
        DC8 0, 0, 31, 21, 4, 4, 4, 4, 4, 14, 0, 0, 0, 0, 51, 18, 18, 18, 18, 18
        DC8 18, 12, 0, 0, 0, 0, 51, 18, 18, 10, 10, 12, 4, 4, 0, 0, 0, 0, 21
        DC8 21, 21, 14, 10, 10, 10, 10, 0, 0, 0, 0, 27, 10, 10, 4, 4, 10, 10
        DC8 27, 0, 0, 0, 0, 27, 10, 10, 4, 4, 4, 4, 14, 0, 0, 0, 0, 31, 9, 8, 4
        DC8 4, 2, 18, 31, 0, 0, 0, 28, 4, 4, 4, 4, 4, 4, 4, 4, 28, 0, 0, 2, 2
        DC8 2, 4, 4, 8, 8, 8, 16, 0, 0, 0, 14, 8, 8, 8, 8, 8, 8, 8, 8, 14, 0, 0
        DC8 4, 10, 0, 0, 0, 0, 0, 0, 0, 0, 0, 0, 0, 0, 0, 0, 0, 0, 0, 0, 0, 0
        DC8 63, 0, 4, 0, 0, 0, 0, 0, 0, 0, 0, 0, 0, 0, 0, 0, 0, 0, 12, 18, 28
        DC8 18, 60, 0, 0, 0, 0, 3, 2, 2, 14, 18, 18, 18, 14, 0, 0, 0, 0, 0, 0
        DC8 0, 28, 18, 2, 2, 28, 0, 0, 0, 0, 24, 16, 16, 28, 18, 18, 18, 60, 0
        DC8 0, 0, 0, 0, 0, 0, 12, 18, 30, 2, 28, 0, 0, 0, 0, 56, 4, 4, 30, 4, 4
        DC8 4, 30, 0, 0, 0, 0, 0, 0, 0, 60, 18, 12, 2, 30, 34, 28, 0, 0, 3, 2
        DC8 2, 14, 18, 18, 18, 55, 0, 0, 0, 0, 4, 0, 0, 6, 4, 4, 4, 14, 0, 0, 0
        DC8 0, 8, 0, 0, 12, 8, 8, 8, 8, 8, 7, 0, 0, 3, 2, 2, 58, 10, 14, 18, 55
        DC8 0, 0, 0, 0, 7, 4, 4, 4, 4, 4, 4, 31, 0, 0, 0, 0, 0, 0, 0, 15, 21
        DC8 21, 21, 21, 0, 0, 0, 0, 0, 0, 0, 15, 18, 18, 18, 55, 0, 0, 0, 0, 0
        DC8 0, 0, 12, 18, 18, 18, 12, 0, 0, 0, 0, 0, 0, 0, 15, 18, 18, 18, 14
        DC8 2, 7, 0, 0, 0, 0, 0, 28, 18, 18, 18, 28, 16, 56, 0, 0, 0, 0, 0, 27
        DC8 6, 2, 2, 7, 0, 0, 0, 0, 0, 0, 0, 30, 2, 12, 16, 30, 0, 0, 0, 0, 0
        DC8 4, 4, 14, 4, 4, 4, 24, 0, 0, 0, 0, 0, 0, 0, 27, 18, 18, 18, 60, 0
        DC8 0, 0, 0, 0, 0, 0, 55, 18, 10, 12, 4, 0, 0, 0, 0, 0, 0, 0, 21, 21
        DC8 14, 10, 10, 0, 0, 0, 0, 0, 0, 0, 27, 10, 4, 10, 27, 0, 0, 0, 0, 0
        DC8 0, 0, 55, 18, 10, 12, 4, 4, 3, 0, 0, 0, 0, 0, 30, 8, 4, 4, 30, 0, 0
        DC8 0, 24, 8, 8, 8, 4, 8, 8, 8, 8, 24, 0, 8, 8, 8, 8, 8, 8, 8, 8, 8, 8
        DC8 8, 8, 0, 6, 4, 4, 4, 8, 4, 4, 4, 4, 6, 0, 2, 37, 24, 0, 0, 0, 0, 0
        DC8 0, 0, 0, 0

        SECTION `.rodata`:CONST:REORDER:NOROOT(2)
// __absolute unsigned char const asc2_1608[95][16]
asc2_1608:
        DATA
        DC8 0, 0, 0, 0, 0, 0, 0, 0, 0, 0, 0, 0, 0, 0, 0, 0, 0, 0, 0, 8, 8, 8, 8
        DC8 8, 8, 8, 0, 0, 24, 24, 0, 0, 0, 72, 108, 36, 18, 0, 0, 0, 0, 0, 0
        DC8 0, 0, 0, 0, 0, 0, 0, 0, 36, 36, 36, 127, 18, 18, 18, 127, 18, 18
        DC8 18, 0, 0, 0, 0, 8, 28, 42, 42, 10, 12, 24, 40, 40, 42, 42, 28, 8, 8
        DC8 0, 0, 0, 34, 37, 21, 21, 21, 42, 88, 84, 84, 84, 34, 0, 0, 0, 0, 0
        DC8 12, 18, 18, 18, 10, 118, 37, 41, 17, 145, 110, 0, 0, 0, 6, 6, 4, 3
        DC8 0, 0, 0, 0, 0, 0, 0, 0, 0, 0, 0, 0, 64, 32, 16, 16, 8, 8, 8, 8, 8
        DC8 8, 16, 16, 32, 64, 0, 0, 2, 4, 8, 8, 16, 16, 16, 16, 16, 16, 8, 8
        DC8 4, 2, 0, 0, 0, 0, 0, 8, 8, 107, 28, 28, 107, 8, 8, 0, 0, 0, 0, 0, 0
        DC8 0, 0, 8, 8, 8, 8, 127, 8, 8, 8, 8, 0, 0, 0, 0, 0, 0, 0, 0, 0, 0, 0
        DC8 0, 0, 0, 0, 6, 6, 4, 3, 0, 0, 0, 0, 0, 0, 0, 0, 254, 0, 0, 0, 0, 0
        DC8 0, 0, 0, 0, 0, 0, 0, 0, 0, 0, 0, 0, 0, 0, 6, 6, 0, 0, 0, 0, 128, 64
        DC8 64, 32, 32, 16, 16, 8, 8, 4, 4, 2, 2, 0, 0, 0, 0, 24, 36, 66, 66
        DC8 66, 66, 66, 66, 66, 36, 24, 0, 0, 0, 0, 0, 8, 14, 8, 8, 8, 8, 8, 8
        DC8 8, 8, 62, 0, 0, 0, 0, 0, 60, 66, 66, 66, 32, 32, 16, 8, 4, 66, 126
        DC8 0, 0, 0, 0, 0, 60, 66, 66, 32, 24, 32, 64, 64, 66, 34, 28, 0, 0, 0
        DC8 0, 0, 32, 48, 40, 36, 36, 34, 34, 126, 32, 32, 120, 0, 0, 0, 0, 0
        DC8 126, 2, 2, 2, 26, 38, 64, 64, 66, 34, 28, 0, 0, 0, 0, 0, 56, 36, 2
        DC8 2, 26, 38, 66, 66, 66, 36, 24, 0, 0, 0, 0, 0, 126, 34, 34, 16, 16
        DC8 8, 8, 8, 8, 8, 8, 0, 0, 0, 0, 0, 60, 66, 66, 66, 36, 24, 36, 66, 66
        DC8 66, 60, 0, 0, 0, 0, 0, 24, 36, 66, 66, 66, 100, 88, 64, 64, 36, 28
        DC8 0, 0, 0, 0, 0, 0, 0, 0, 24, 24, 0, 0, 0, 0, 24, 24, 0, 0, 0, 0, 0
        DC8 0, 0, 0, 0, 8, 0, 0, 0, 0, 0, 8, 8, 4, 0, 0, 0, 64, 32, 16, 8, 4, 2
        DC8 4, 8, 16, 32, 64, 0, 0, 0, 0, 0, 0, 0, 0, 127, 0, 0, 0, 127, 0, 0
        DC8 0, 0, 0, 0, 0, 0, 2, 4, 8, 16, 32, 64, 32, 16, 8, 4, 2, 0, 0, 0, 0
        DC8 0, 60, 66, 66, 70, 64, 32, 16, 16, 0, 24, 24, 0, 0, 0, 0, 0, 28, 34
        DC8 90, 85, 85, 85, 85, 45, 66, 34, 28, 0, 0, 0, 0, 0, 8, 8, 24, 20, 20
        DC8 36, 60, 34, 66, 66, 231, 0, 0, 0, 0, 0, 31, 34, 34, 34, 30, 34, 66
        DC8 66, 66, 34, 31, 0, 0, 0, 0, 0, 124, 66, 66, 1, 1, 1, 1, 1, 66, 34
        DC8 28, 0, 0, 0, 0, 0, 31, 34, 66, 66, 66, 66, 66, 66, 66, 34, 31, 0, 0
        DC8 0, 0, 0, 63, 66, 18, 18, 30, 18, 18, 2, 66, 66, 63, 0, 0, 0, 0, 0
        DC8 63, 66, 18, 18, 30, 18, 18, 2, 2, 2, 7, 0, 0, 0, 0, 0, 60, 34, 34
        DC8 1, 1, 1, 113, 33, 34, 34, 28, 0, 0, 0, 0, 0, 231, 66, 66, 66, 66
        DC8 126, 66, 66, 66, 66, 231, 0, 0, 0, 0, 0, 62, 8, 8, 8, 8, 8, 8, 8, 8
        DC8 8, 62, 0, 0, 0, 0, 0, 124, 16, 16, 16, 16, 16, 16, 16, 16, 16, 16
        DC8 17, 15, 0, 0, 0, 119, 34, 18, 10, 14, 10, 18, 18, 34, 34, 119, 0, 0
        DC8 0, 0, 0, 7, 2, 2, 2, 2, 2, 2, 2, 2, 66, 127, 0, 0, 0, 0, 0, 119, 54
        DC8 54, 54, 54, 42, 42, 42, 42, 42, 107, 0, 0, 0, 0, 0, 227, 70, 70, 74
        DC8 74, 82, 82, 82, 98, 98, 71, 0, 0, 0, 0, 0, 28, 34, 65, 65, 65, 65
        DC8 65, 65, 65, 34, 28, 0, 0, 0, 0, 0, 63, 66, 66, 66, 66, 62, 2, 2, 2
        DC8 2, 7, 0, 0, 0, 0, 0, 28, 34, 65, 65, 65, 65, 65, 77, 83, 50, 28, 96
        DC8 0, 0, 0, 0, 63, 66, 66, 66, 62, 18, 18, 34, 34, 66, 199, 0, 0, 0, 0
        DC8 0, 124, 66, 66, 2, 4, 24, 32, 64, 66, 66, 62, 0, 0, 0, 0, 0, 127
        DC8 73, 8, 8, 8, 8, 8, 8, 8, 8, 28, 0, 0, 0, 0, 0, 231, 66, 66, 66, 66
        DC8 66, 66, 66, 66, 66, 60, 0, 0, 0, 0, 0, 231, 66, 66, 34, 36, 36, 20
        DC8 20, 24, 8, 8, 0, 0, 0, 0, 0, 107, 73, 73, 73, 73, 85, 85, 54, 34
        DC8 34, 34, 0, 0, 0, 0, 0, 231, 66, 36, 36, 24, 24, 24, 36, 36, 66, 231
        DC8 0, 0, 0, 0, 0, 119, 34, 34, 20, 20, 8, 8, 8, 8, 8, 28, 0, 0, 0, 0
        DC8 0, 126, 33, 32, 16, 16, 8, 4, 4, 66, 66, 63, 0, 0, 0, 120, 8, 8, 8
        DC8 8, 8, 8, 8, 8, 8, 8, 8, 8, 120, 0, 0, 0, 2, 2, 4, 4, 8, 8, 8, 16
        DC8 16, 32, 32, 32, 64, 64, 0, 30, 16, 16, 16, 16, 16, 16, 16, 16, 16
        DC8 16, 16, 16, 30, 0, 0, 56, 68, 0, 0, 0, 0, 0, 0, 0, 0, 0, 0, 0, 0, 0
        DC8 0, 0, 0, 0, 0, 0, 0, 0, 0, 0, 0, 0, 0, 0, 0, 255, 0, 6, 8, 0, 0, 0
        DC8 0, 0, 0, 0, 0, 0, 0, 0, 0, 0, 0, 0, 0, 0, 0, 0, 0, 60, 66, 120, 68
        DC8 66, 66, 252, 0, 0, 0, 0, 0, 3, 2, 2, 2, 26, 38, 66, 66, 66, 38, 26
        DC8 0, 0, 0, 0, 0, 0, 0, 0, 0, 56, 68, 2, 2, 2, 68, 56, 0, 0, 0, 0, 0
        DC8 96, 64, 64, 64, 120, 68, 66, 66, 66, 100, 216, 0, 0, 0, 0, 0, 0, 0
        DC8 0, 0, 60, 66, 126, 2, 2, 66, 60, 0, 0, 0, 0, 0, 240, 136, 8, 8, 126
        DC8 8, 8, 8, 8, 8, 62, 0, 0, 0, 0, 0, 0, 0, 0, 0, 124, 34, 34, 28, 2
        DC8 60, 66, 66, 60, 0, 0, 0, 3, 2, 2, 2, 58, 70, 66, 66, 66, 66, 231, 0
        DC8 0, 0, 0, 0, 12, 12, 0, 0, 14, 8, 8, 8, 8, 8, 62, 0, 0, 0, 0, 0, 48
        DC8 48, 0, 0, 56, 32, 32, 32, 32, 32, 32, 34, 30, 0, 0, 0, 3, 2, 2, 2
        DC8 114, 18, 10, 22, 18, 34, 119, 0, 0, 0, 0, 0, 14, 8, 8, 8, 8, 8, 8
        DC8 8, 8, 8, 62, 0, 0, 0, 0, 0, 0, 0, 0, 0, 127, 146, 146, 146, 146
        DC8 146, 183, 0, 0, 0, 0, 0, 0, 0, 0, 0, 59, 70, 66, 66, 66, 66, 231, 0
        DC8 0, 0, 0, 0, 0, 0, 0, 0, 60, 66, 66, 66, 66, 66, 60, 0, 0, 0, 0, 0
        DC8 0, 0, 0, 0, 27, 38, 66, 66, 66, 34, 30, 2, 7, 0, 0, 0, 0, 0, 0, 0
        DC8 120, 68, 66, 66, 66, 68, 120, 64, 224, 0, 0, 0, 0, 0, 0, 0, 119, 76
        DC8 4, 4, 4, 4, 31, 0, 0, 0, 0, 0, 0, 0, 0, 0, 124, 66, 2, 60, 64, 66
        DC8 62, 0, 0, 0, 0, 0, 0, 0, 8, 8, 62, 8, 8, 8, 8, 8, 48, 0, 0, 0, 0, 0
        DC8 0, 0, 0, 0, 99, 66, 66, 66, 66, 98, 220, 0, 0, 0, 0, 0, 0, 0, 0, 0
        DC8 231, 66, 36, 36, 20, 8, 8, 0, 0, 0, 0, 0, 0, 0, 0, 0, 235, 73, 73
        DC8 85, 85, 34, 34, 0, 0, 0, 0, 0, 0, 0, 0, 0, 118, 36, 24, 24, 24, 36
        DC8 110, 0, 0, 0, 0, 0, 0, 0, 0, 0, 231, 66, 36, 36, 20, 24, 8, 8, 7, 0
        DC8 0, 0, 0, 0, 0, 0, 126, 34, 16, 8, 8, 68, 126, 0, 0, 0, 192, 32, 32
        DC8 32, 32, 32, 16, 32, 32, 32, 32, 32, 32, 192, 0, 16, 16, 16, 16, 16
        DC8 16, 16, 16, 16, 16, 16, 16, 16, 16, 16, 16, 0, 6, 8, 8, 8, 8, 8, 16
        DC8 8, 8, 8, 8, 8, 8, 6, 0, 12, 50, 194, 0, 0, 0, 0, 0, 0, 0, 0, 0, 0
        DC8 0, 0, 0

        SECTION `.rodata`:CONST:REORDER:NOROOT(2)
// __absolute unsigned char const asc2_2412[12][48]
asc2_2412:
        DATA
        DC8 0, 0, 0, 0, 0, 0, 31, 224, 31, 192, 111, 208, 119, 176, 112, 48
        DC8 112, 48, 112, 48, 112, 48, 112, 48, 112, 48, 32, 16, 112, 48, 112
        DC8 48, 112, 48, 112, 48, 112, 48, 112, 48, 103, 208, 111, 224, 31, 224
        DC8 31, 224, 0, 0, 0, 0, 0, 0, 56, 0, 120, 0, 54, 0, 46, 0, 14, 0, 14
        DC8 0, 14, 0, 14, 0, 14, 0, 4, 0, 0, 0, 4, 0, 14, 0, 14, 0, 14, 0, 14
        DC8 0, 14, 0, 14, 0, 14, 0, 14, 0, 4, 0, 0, 0, 0, 0, 0, 0, 63, 240, 127
        DC8 224, 127, 224, 63, 208, 0, 48, 0, 48, 0, 48, 0, 48, 0, 48, 31, 208
        DC8 31, 224, 47, 224, 119, 224, 112, 0, 112, 0, 112, 0, 96, 0, 111, 240
        DC8 95, 240, 63, 240, 63, 240, 0, 0, 0, 0, 0, 0, 63, 240, 127, 240, 127
        DC8 224, 63, 208, 0, 48, 0, 48, 0, 48, 0, 48, 0, 48, 63, 176, 127, 208
        DC8 127, 208, 63, 176, 0, 48, 0, 48, 0, 48, 0, 48, 63, 208, 127, 224
        DC8 127, 240, 63, 240, 0, 0, 0, 0, 0, 0, 32, 16, 112, 48, 112, 48, 112
        DC8 48, 112, 48, 112, 48, 112, 48, 112, 48, 112, 48, 55, 176, 15, 208
        DC8 15, 208, 7, 176, 0, 48, 0, 48, 0, 48, 0, 48, 0, 48, 0, 48, 0, 48, 0
        DC8 16, 0, 0, 0, 0, 0, 0, 31, 240, 95, 240, 111, 240, 119, 240, 112, 0
        DC8 112, 0, 112, 0, 112, 0, 63, 128, 31, 192, 31, 192, 15, 176, 0, 48
        DC8 0, 48, 0, 48, 0, 48, 0, 48, 63, 208, 127, 208, 127, 224, 63, 224, 0
        DC8 0, 0, 0, 0, 0, 31, 240, 31, 240, 111, 240, 119, 240, 112, 0, 112, 0
        DC8 112, 0, 112, 0, 112, 0, 119, 192, 47, 192, 111, 208, 119, 176, 112
        DC8 48, 112, 48, 112, 48, 112, 48, 103, 208, 111, 224, 31, 224, 31, 224
        DC8 0, 0, 0, 0, 0, 0, 63, 224, 127, 224, 127, 208, 63, 144, 0, 48, 0
        DC8 48, 0, 48, 0, 48, 0, 48, 0, 48, 0, 16, 0, 16, 0, 48, 0, 48, 0, 48
        DC8 0, 48, 0, 48, 0, 48, 0, 48, 0, 48, 0, 16, 0, 0, 0, 0, 0, 0, 31, 224
        DC8 31, 192, 111, 208, 119, 176, 112, 48, 112, 48, 112, 48, 112, 48
        DC8 112, 48, 119, 176, 47, 208, 111, 240, 119, 176, 112, 48, 112, 48
        DC8 112, 48, 112, 48, 103, 208, 111, 224, 31, 224, 31, 192, 0, 0, 0, 0
        DC8 0, 0, 31, 224, 31, 192, 111, 208, 119, 176, 112, 48, 112, 48, 112
        DC8 48, 112, 48, 112, 48, 111, 176, 15, 208, 15, 240, 15, 176, 0, 48, 0
        DC8 48, 0, 48, 0, 48, 63, 208, 127, 224, 127, 224, 63, 192, 0, 0, 0, 0
        DC8 0, 0, 0, 0, 0, 0, 0, 0, 0, 0, 0, 0, 96, 0, 96, 0, 32, 0, 0, 0, 0, 0
        DC8 0, 0, 0, 0, 0, 0, 32, 0, 96, 0, 96, 0, 0, 0, 0, 0, 0, 0, 0, 0, 0, 0
        DC8 0, 0, 0, 0, 0, 0, 0, 0, 0, 0, 0, 0, 0, 0, 0, 0, 0, 0, 0, 0, 0, 0, 0
        DC8 0, 0, 0, 0, 0, 0, 0, 0, 0, 0, 0, 0, 0, 60, 0, 60, 0, 60, 0, 0, 0, 0
        DC8 0, 0, 0

        SECTION `.rodata`:CONST:REORDER:NOROOT(2)
// __absolute struct <unnamed> const tfont16[5]
tfont16:
        DATA
        DC8 0CFH, 0B5H
        DC8 0, 0, 0, 12, 63, 248, 3, 0, 6, 56, 12, 112, 31, 192, 3, 140, 14, 12
        DC8 63, 254, 13, 182, 13, 152, 25, 156, 49, 140, 49, 134, 103, 134
        DC8 0CDH, 0B3H
        DC8 0, 0, 0, 0, 24, 48, 27, 255, 48, 96, 54, 204, 108, 204, 125, 134
        DC8 25, 254, 24, 219, 48, 216, 127, 216, 112, 219, 1, 155, 31, 155, 119
        DC8 31
        DC8 0BCH, 0E0H
        DC8 0, 0, 0, 0, 6, 192, 54, 255, 54, 192, 55, 128, 55, 176, 55, 24, 6
        DC8 12, 0, 0, 63, 254, 54, 102, 54, 102, 54, 102, 54, 102, 127, 255
        DC8 0BFH, 0D8H
        DC8 0, 0, 0, 0, 48, 96, 48, 96, 55, 255, 126, 251, 55, 158, 51, 140, 63
        DC8 6, 56, 0, 49, 252, 112, 96, 48, 96, 48, 96, 48, 96, 127, 255
        DC8 0A1H, 0E6H
        DC8 192, 0, 35, 232, 44, 24, 216, 8, 16, 8, 48, 0, 48, 0, 48, 0, 48, 0
        DC8 48, 0, 48, 0, 16, 0, 24, 8, 12, 16, 3, 224, 0, 0, 0, 0

        SECTION `.rodata`:CONST:REORDER:NOROOT(2)
// __absolute struct <unnamed> const tfont24[11]
tfont24:
        DATA
        DC8 0CEH, 0C2H
        DC8 0, 0, 0, 0, 0, 0, 16, 0, 0, 12, 127, 240, 4, 64, 32, 4, 64, 32, 1
        DC8 64, 32, 2, 127, 224, 98, 64, 32, 50, 64, 32, 18, 64, 32, 4, 127
        DC8 224, 4, 0, 0, 5, 0, 16, 4, 255, 248, 8, 137, 16, 120, 137, 16, 24
        DC8 137, 16, 24, 137, 16, 24, 137, 16, 24, 137, 16, 24, 137, 22, 7, 118
        DC8 232, 0, 0, 0
        DC8 0CAH, 0AAH
        DC8 0, 0, 0, 0, 0, 0, 16, 0, 16, 8, 127, 248, 12, 96, 16, 4, 96, 16, 1
        DC8 96, 16, 66, 127, 240, 50, 96, 16, 26, 96, 16, 18, 127, 240, 4, 105
        DC8 0, 4, 8, 128, 5, 8, 140, 8, 136, 140, 24, 200, 152, 56, 72, 144, 24
        DC8 104, 160, 16, 72, 192, 16, 8, 128, 48, 8, 128, 16, 8, 140, 3, 247
        DC8 112, 0, 0, 0
        DC8 0B6H, 0C8H
        DC8 0, 0, 0, 0, 16, 0, 0, 8, 0, 0, 12, 8, 15, 255, 252, 8, 64, 0, 8, 48
        DC8 192, 8, 32, 136, 8, 32, 156, 15, 255, 224, 8, 32, 128, 8, 32, 128
        DC8 8, 63, 128, 8, 0, 0, 25, 255, 224, 24, 32, 192, 16, 32, 128, 16, 17
        DC8 128, 16, 11, 0, 32, 6, 0, 32, 27, 128, 64, 96, 254, 71, 128, 24, 0
        DC8 0, 0
        DC8 0B5H, 0E7H
        DC8 0, 0, 0, 0, 0, 0, 0, 24, 0, 0, 16, 0, 0, 16, 0, 0, 16, 0, 15, 255
        DC8 240, 8, 16, 32, 8, 16, 32, 8, 16, 32, 8, 16, 32, 15, 255, 224, 8
        DC8 16, 32, 8, 16, 32, 8, 16, 32, 8, 16, 32, 15, 255, 224, 8, 16, 0, 0
        DC8 16, 8, 0, 16, 8, 0, 16, 4, 0, 24, 12, 0, 15, 248, 0, 0, 0
        DC8 0D1H, 0B9H
        DC8 0, 0, 0, 0, 0, 0, 0, 0, 24, 15, 255, 252, 12, 0, 0, 12, 12, 0, 12
        DC8 12, 0, 12, 12, 0, 12, 12, 0, 12, 12, 0, 12, 12, 0, 13, 255, 240, 12
        DC8 12, 0, 12, 12, 0, 8, 12, 128, 8, 12, 64, 8, 12, 96, 8, 12, 48, 16
        DC8 12, 32, 16, 12, 0, 32, 12, 12, 39, 243, 240, 64, 0, 0, 0, 0, 0
        DC8 0C1H, 0F7H
        DC8 0, 0, 0, 0, 8, 0, 0, 6, 0, 8, 2, 8, 4, 255, 252, 6, 4, 0, 0, 4, 0
        DC8 1, 8, 64, 65, 16, 32, 49, 32, 48, 18, 127, 208, 18, 0, 16, 4, 100
        DC8 96, 4, 100, 64, 4, 100, 64, 8, 100, 64, 120, 100, 64, 24, 68, 64
        DC8 24, 68, 68, 24, 196, 68, 24, 132, 68, 25, 4, 126, 6, 4, 0, 0, 0, 0
        DC8 0A1H, 0E6H
        DC8 0, 0, 0, 0, 0, 0, 0, 0, 0, 12, 0, 0, 18, 31, 128, 18, 48, 104, 18
        DC8 96, 24, 12, 192, 24, 0, 128, 8, 1, 128, 8, 1, 128, 0, 1, 128, 0, 1
        DC8 128, 0, 1, 128, 0, 1, 128, 0, 0, 128, 0, 0, 192, 0, 0, 192, 16, 0
        DC8 96, 32, 0, 56, 192, 0, 15, 0, 0, 0, 0, 0, 0, 0, 0, 0, 0
        DC8 0A3H, 0BAH
        DC8 0, 0, 0, 0, 0, 0, 0, 0, 0, 0, 0, 0, 0, 0, 0, 0, 0, 0, 0, 0, 0, 0, 0
        DC8 0, 0, 0, 0, 0, 0, 0, 0, 0, 0, 0, 0, 0, 0, 0, 0, 28, 0, 0, 28, 0, 0
        DC8 12, 0, 0, 0, 0, 0, 0, 0, 0, 12, 0, 0, 28, 0, 0, 28, 0, 0, 0, 0, 0
        DC8 0, 0, 0, 0, 0, 0
        DC8 0A3H, 0A5H
        DC8 0, 0, 0, 0, 0, 0, 0, 0, 0, 0, 0, 0, 7, 0, 24, 8, 128, 48, 8, 128
        DC8 96, 8, 128, 192, 8, 129, 128, 8, 129, 0, 8, 130, 0, 5, 4, 0, 2, 8
        DC8 0, 0, 17, 224, 0, 33, 16, 0, 65, 16, 0, 131, 16, 1, 3, 16, 2, 1, 16
        DC8 4, 1, 16, 8, 0, 224, 0, 0, 0, 0, 0, 0, 0, 0, 0
        DC8 0A3H, 0D6H
        DC8 0, 0, 0, 0, 0, 0, 0, 0, 0, 0, 0, 0, 15, 193, 240, 3, 0, 64, 3, 0
        DC8 64, 1, 0, 128, 1, 128, 128, 1, 129, 0, 0, 193, 0, 0, 195, 0, 0, 98
        DC8 0, 0, 98, 0, 0, 36, 0, 0, 52, 0, 0, 24, 0, 0, 24, 0, 0, 24, 0, 0, 0
        DC8 0, 0, 0, 0, 0, 0, 0, 0, 0, 0, 0, 0, 0
        DC8 0A3H, 0C1H
        DC8 0, 0, 0, 0, 0, 0, 0, 0, 0, 0, 0, 0, 0, 0, 0, 0, 8, 0, 0, 24, 0, 0
        DC8 28, 0, 0, 44, 0, 0, 36, 0, 0, 102, 0, 0, 70, 0, 0, 195, 0, 0, 131
        DC8 0, 0, 255, 0, 1, 1, 128, 1, 1, 128, 2, 0, 192, 2, 0, 192, 15, 131
        DC8 240, 0, 0, 0, 0, 0, 0, 0, 0, 0, 0, 0, 0, 0, 0

        SECTION `.rodata`:CONST:REORDER:NOROOT(2)
// __absolute struct <unnamed> const tfont32[1]
tfont32:
        DATA
        DC8 0D7H, 0D6H
        DC8 0, 0, 0, 0, 0, 6, 0, 0, 0, 3, 0, 0, 0, 0, 192, 0, 0, 1, 192, 192, 0
        DC8 1, 7, 192, 0, 1, 255, 0, 2, 31, 254, 0, 7, 240, 28, 0, 7, 192, 112
        DC8 0, 15, 0, 224, 0, 14, 3, 240, 0, 28, 15, 240, 0, 60, 15, 112, 0, 60
        DC8 0, 224, 0, 24, 0, 192, 0, 0, 0, 192, 0, 0, 0, 192, 0, 0, 0, 96, 0
        DC8 0, 0, 32, 0, 0, 0, 55, 0, 0, 1, 255, 0, 0, 127, 248, 0, 7, 248, 48
        DC8 0, 31, 128, 48, 0, 0, 128, 48, 0, 0, 192, 48, 0, 0, 96, 96, 0, 0
        DC8 24, 224, 0, 0, 15, 192, 0, 0, 6, 0, 0, 0, 0, 0, 0, 0, 0
//    4 //#include "delay.h"
//    5 #include "gui.h"
//    6 
//    7 //******************************************************************
//    8 //函数名：  GUI_DrawPoint
//    9 //功能：    GUI描绘一个点
//   10 //输入参数：x:光标位置x坐标
//   11 //        	y:光标位置y坐标
//   12 //			color:要填充的颜色
//   13 //返回值：  无
//   14 //修改记录：无
//   15 //******************************************************************

        SECTION `.text`:CODE:NOROOT(1)
        THUMB
//   16 void GUI_DrawPoint(u16 x,u16 y,u16 color)
//   17 {
GUI_DrawPoint:
        PUSH     {R4-R6,LR}
        MOVS     R4,R0
        MOVS     R5,R1
        MOVS     R6,R2
//   18 	LCD_SetCursor(x,y);//设置光标位置 
        MOVS     R1,R5
        UXTH     R1,R1            ;; ZeroExt  R1,R1,#+16,#+16
        MOVS     R0,R4
        UXTH     R0,R0            ;; ZeroExt  R0,R0,#+16,#+16
        BL       LCD_SetCursor
//   19 	LCD_WR_DATA_16Bit(color); 
        MOVS     R0,R6
        UXTH     R0,R0            ;; ZeroExt  R0,R0,#+16,#+16
        BL       LCD_WR_DATA_16Bit
//   20 }
        POP      {R4-R6,PC}       ;; return
//   21 
//   22 //******************************************************************
//   23 //函数名：  LCD_Fill
//   24 //功能：    在指定区域内填充颜色
//   25 //输入参数：sx:指定区域开始点x坐标
//   26 //        	sy:指定区域开始点y坐标
//   27 //			ex:指定区域结束点x坐标
//   28 //			ey:指定区域结束点y坐标
//   29 //        	color:要填充的颜色
//   30 //返回值：  无
//   31 //修改记录：无
//   32 //******************************************************************

        SECTION `.text`:CODE:NOROOT(1)
        THUMB
//   33 void LCD_Fill(u16 sx,u16 sy,u16 ex,u16 ey,u16 color)
//   34 {  	
LCD_Fill:
        PUSH     {R0,R4-R11,LR}
        MOVS     R5,R1
        MOVS     R6,R2
        MOVS     R7,R3
        LDR      R4,[SP, #+40]
//   35 
//   36 	u16 i,j;			
//   37 	u16 width=ex-sx+1; 		//得到填充的宽度
        LDRH     R0,[SP, #+0]
        SUBS     R0,R6,R0
        ADDS     R10,R0,#+1
//   38 	u16 height=ey-sy+1;		//高度
        SUBS     R0,R7,R5
        ADDS     R11,R0,#+1
//   39 	LCD_SetWindows(sx,sy,ex-1,ey-1);//设置显示窗口
        SUBS     R3,R7,#+1
        UXTH     R3,R3            ;; ZeroExt  R3,R3,#+16,#+16
        SUBS     R2,R6,#+1
        UXTH     R2,R2            ;; ZeroExt  R2,R2,#+16,#+16
        MOVS     R1,R5
        UXTH     R1,R1            ;; ZeroExt  R1,R1,#+16,#+16
        LDRH     R0,[SP, #+0]
        BL       LCD_SetWindows
//   40 	for(i=0;i<height;i++)
        MOVS     R0,#+0
        MOV      R8,R0
??LCD_Fill_0:
        UXTH     R8,R8            ;; ZeroExt  R8,R8,#+16,#+16
        UXTH     R11,R11          ;; ZeroExt  R11,R11,#+16,#+16
        CMP      R8,R11
        BCS.N    ??LCD_Fill_1
//   41 	{
//   42 		for(j=0;j<width;j++)
        MOVS     R0,#+0
        MOV      R9,R0
??LCD_Fill_2:
        UXTH     R9,R9            ;; ZeroExt  R9,R9,#+16,#+16
        UXTH     R10,R10          ;; ZeroExt  R10,R10,#+16,#+16
        CMP      R9,R10
        BCS.N    ??LCD_Fill_3
//   43 		LCD_WR_DATA_16Bit(color);	//写入数据 	 
        MOVS     R0,R4
        UXTH     R0,R0            ;; ZeroExt  R0,R0,#+16,#+16
        BL       LCD_WR_DATA_16Bit
        ADDS     R9,R9,#+1
        B.N      ??LCD_Fill_2
//   44 	}
??LCD_Fill_3:
        ADDS     R8,R8,#+1
        B.N      ??LCD_Fill_0
//   45 
//   46 	LCD_SetWindows(0,0,lcddev.width-1,lcddev.height-1);//恢复窗口设置为全屏
??LCD_Fill_1:
        LDR.W    R0,??DataTable11
        LDRH     R0,[R0, #+2]
        SUBS     R3,R0,#+1
        UXTH     R3,R3            ;; ZeroExt  R3,R3,#+16,#+16
        LDR.W    R0,??DataTable11
        LDRH     R0,[R0, #+0]
        SUBS     R2,R0,#+1
        UXTH     R2,R2            ;; ZeroExt  R2,R2,#+16,#+16
        MOVS     R1,#+0
        MOVS     R0,#+0
        BL       LCD_SetWindows
//   47 }
        POP      {R0,R4-R11,PC}   ;; return
//   48 
//   49 //******************************************************************
//   50 //函数名：  LCD_DrawLine
//   51 //功能：    GUI画线
//   52 //输入参数：x1,y1:起点坐标
//   53 //        	x2,y2:终点坐标 
//   54 //返回值：  无
//   55 //修改记录：无
//   56 //****************************************************************** 

        SECTION `.text`:CODE:NOROOT(1)
        THUMB
//   57 void LCD_DrawLine(u16 x1, u16 y1, u16 x2, u16 y2)
//   58 {
LCD_DrawLine:
        PUSH     {R0-R11,LR}
        SUB      SP,SP,#+12
//   59 	u16 t; 
//   60 	int xerr=0,yerr=0,delta_x,delta_y,distance; 
        MOVS     R7,#+0
        MOVS     R8,#+0
//   61 	int incx,incy,uRow,uCol; 
//   62 
//   63 	delta_x=x2-x1; //计算坐标增量 
        LDRH     R0,[SP, #+20]
        LDRH     R1,[SP, #+12]
        SUBS     R0,R0,R1
        MOV      R11,R0
//   64 	delta_y=y2-y1; 
        LDRH     R0,[SP, #+24]
        LDRH     R1,[SP, #+16]
        SUBS     R0,R0,R1
        MOVS     R5,R0
//   65 	uRow=x1; 
        LDRH     R0,[SP, #+12]
        MOV      R9,R0
//   66 	uCol=y1; 
        LDRH     R0,[SP, #+16]
        MOV      R10,R0
//   67 	if(delta_x>0)incx=1; //设置单步方向 
        CMP      R11,#+1
        BLT.N    ??LCD_DrawLine_0
        MOVS     R0,#+1
        STR      R0,[SP, #+4]
        B.N      ??LCD_DrawLine_1
//   68 	else if(delta_x==0)incx=0;//垂直线 
??LCD_DrawLine_0:
        CMP      R11,#+0
        BNE.N    ??LCD_DrawLine_2
        MOVS     R0,#+0
        STR      R0,[SP, #+4]
        B.N      ??LCD_DrawLine_1
//   69 	else {incx=-1;delta_x=-delta_x;} 
??LCD_DrawLine_2:
        MOVS     R0,#-1
        STR      R0,[SP, #+4]
        RSBS     R11,R11,#+0
//   70 	if(delta_y>0)incy=1; 
??LCD_DrawLine_1:
        CMP      R5,#+1
        BLT.N    ??LCD_DrawLine_3
        MOVS     R0,#+1
        STR      R0,[SP, #+0]
        B.N      ??LCD_DrawLine_4
//   71 	else if(delta_y==0)incy=0;//水平线 
??LCD_DrawLine_3:
        CMP      R5,#+0
        BNE.N    ??LCD_DrawLine_5
        MOVS     R0,#+0
        STR      R0,[SP, #+0]
        B.N      ??LCD_DrawLine_4
//   72 	else{incy=-1;delta_y=-delta_y;} 
??LCD_DrawLine_5:
        MOVS     R0,#-1
        STR      R0,[SP, #+0]
        RSBS     R5,R5,#+0
//   73 	if( delta_x>delta_y)distance=delta_x; //选取基本增量坐标轴 
??LCD_DrawLine_4:
        CMP      R5,R11
        BGE.N    ??LCD_DrawLine_6
        MOV      R6,R11
        B.N      ??LCD_DrawLine_7
//   74 	else distance=delta_y; 
??LCD_DrawLine_6:
        MOVS     R6,R5
//   75 	for(t=0;t<=distance+1;t++ )//画线输出 
??LCD_DrawLine_7:
        MOVS     R0,#+0
        MOVS     R4,R0
??LCD_DrawLine_8:
        ADDS     R0,R6,#+1
        UXTH     R4,R4            ;; ZeroExt  R4,R4,#+16,#+16
        CMP      R0,R4
        BLT.N    ??LCD_DrawLine_9
//   76 	{  
//   77 		LCD_DrawPoint(uRow,uCol);//画点 
        MOV      R1,R10
        UXTH     R1,R1            ;; ZeroExt  R1,R1,#+16,#+16
        MOV      R0,R9
        UXTH     R0,R0            ;; ZeroExt  R0,R0,#+16,#+16
        BL       LCD_DrawPoint
//   78 		xerr+=delta_x ; 
        ADDS     R7,R11,R7
//   79 		yerr+=delta_y ; 
        ADDS     R8,R5,R8
//   80 		if(xerr>distance) 
        CMP      R6,R7
        BGE.N    ??LCD_DrawLine_10
//   81 		{ 
//   82 			xerr-=distance; 
        SUBS     R7,R7,R6
//   83 			uRow+=incx; 
        LDR      R0,[SP, #+4]
        ADDS     R9,R0,R9
//   84 		} 
//   85 		if(yerr>distance) 
??LCD_DrawLine_10:
        CMP      R6,R8
        BGE.N    ??LCD_DrawLine_11
//   86 		{ 
//   87 			yerr-=distance; 
        SUBS     R8,R8,R6
//   88 			uCol+=incy; 
        LDR      R0,[SP, #+0]
        ADDS     R10,R0,R10
//   89 		} 
//   90 	}  
??LCD_DrawLine_11:
        ADDS     R4,R4,#+1
        B.N      ??LCD_DrawLine_8
//   91 } 
??LCD_DrawLine_9:
        ADD      SP,SP,#+28
        POP      {R4-R11,PC}      ;; return
//   92 
//   93 //******************************************************************
//   94 //函数名：  LCD_DrawRectangle
//   95 //功能：    GUI画矩形(非填充)
//   96 //输入参数：(x1,y1),(x2,y2):矩形的对角坐标
//   97 //返回值：  无
//   98 //修改记录：无
//   99 //******************************************************************  

        SECTION `.text`:CODE:NOROOT(1)
        THUMB
//  100 void LCD_DrawRectangle(u16 x1, u16 y1, u16 x2, u16 y2)
//  101 {
LCD_DrawRectangle:
        PUSH     {R3-R7,LR}
        MOVS     R4,R0
        MOVS     R5,R1
        MOVS     R6,R2
        MOVS     R7,R3
//  102 	LCD_DrawLine(x1,y1,x2,y1);
        MOVS     R3,R5
        UXTH     R3,R3            ;; ZeroExt  R3,R3,#+16,#+16
        MOVS     R2,R6
        UXTH     R2,R2            ;; ZeroExt  R2,R2,#+16,#+16
        MOVS     R1,R5
        UXTH     R1,R1            ;; ZeroExt  R1,R1,#+16,#+16
        MOVS     R0,R4
        UXTH     R0,R0            ;; ZeroExt  R0,R0,#+16,#+16
        BL       LCD_DrawLine
//  103 	LCD_DrawLine(x1,y1,x1,y2);
        MOVS     R3,R7
        UXTH     R3,R3            ;; ZeroExt  R3,R3,#+16,#+16
        MOVS     R2,R4
        UXTH     R2,R2            ;; ZeroExt  R2,R2,#+16,#+16
        MOVS     R1,R5
        UXTH     R1,R1            ;; ZeroExt  R1,R1,#+16,#+16
        MOVS     R0,R4
        UXTH     R0,R0            ;; ZeroExt  R0,R0,#+16,#+16
        BL       LCD_DrawLine
//  104 	LCD_DrawLine(x1,y2,x2,y2);
        MOVS     R3,R7
        UXTH     R3,R3            ;; ZeroExt  R3,R3,#+16,#+16
        MOVS     R2,R6
        UXTH     R2,R2            ;; ZeroExt  R2,R2,#+16,#+16
        MOVS     R1,R7
        UXTH     R1,R1            ;; ZeroExt  R1,R1,#+16,#+16
        MOVS     R0,R4
        UXTH     R0,R0            ;; ZeroExt  R0,R0,#+16,#+16
        BL       LCD_DrawLine
//  105 	LCD_DrawLine(x2,y1,x2,y2);
        MOVS     R3,R7
        UXTH     R3,R3            ;; ZeroExt  R3,R3,#+16,#+16
        MOVS     R2,R6
        UXTH     R2,R2            ;; ZeroExt  R2,R2,#+16,#+16
        MOVS     R1,R5
        UXTH     R1,R1            ;; ZeroExt  R1,R1,#+16,#+16
        MOVS     R0,R6
        UXTH     R0,R0            ;; ZeroExt  R0,R0,#+16,#+16
        BL       LCD_DrawLine
//  106 }  
        POP      {R0,R4-R7,PC}    ;; return
//  107 
//  108 //******************************************************************
//  109 //函数名：  LCD_DrawFillRectangle
//  110 //功能：    GUI画矩形(填充)
//  111 //输入参数：(x1,y1),(x2,y2):矩形的对角坐标
//  112 //返回值：  无
//  113 //修改记录：无
//  114 //******************************************************************   

        SECTION `.text`:CODE:NOROOT(1)
        THUMB
//  115 void LCD_DrawFillRectangle(u16 x1, u16 y1, u16 x2, u16 y2)
//  116 {
LCD_DrawFillRectangle:
        PUSH     {R3-R7,LR}
        MOVS     R4,R0
        MOVS     R5,R1
        MOVS     R6,R2
        MOVS     R7,R3
//  117 	LCD_Fill(x1,y1,x2,y2,POINT_COLOR);
        LDR.W    R0,??DataTable11_1
        LDRH     R0,[R0, #+0]
        STR      R0,[SP, #+0]
        MOVS     R3,R7
        UXTH     R3,R3            ;; ZeroExt  R3,R3,#+16,#+16
        MOVS     R2,R6
        UXTH     R2,R2            ;; ZeroExt  R2,R2,#+16,#+16
        MOVS     R1,R5
        UXTH     R1,R1            ;; ZeroExt  R1,R1,#+16,#+16
        MOVS     R0,R4
        UXTH     R0,R0            ;; ZeroExt  R0,R0,#+16,#+16
        BL       LCD_Fill
//  118 
//  119 }
        POP      {R0,R4-R7,PC}    ;; return
//  120  
//  121 //******************************************************************
//  122 //函数名：  _draw_circle_8
//  123 //功能：    对称性画圆算法(内部调用)
//  124 //输入参数：(xc,yc) :圆中心坐标
//  125 // 			(x,y):光标相对于圆心的坐标
//  126 //         	c:填充的颜色
//  127 //返回值：  无
//  128 //修改记录：无
//  129 //******************************************************************  

        SECTION `.text`:CODE:NOROOT(1)
        THUMB
//  130 void _draw_circle_8(int xc, int yc, int x, int y, u16 c)
//  131 {
_draw_circle_8:
        PUSH     {R4-R8,LR}
        MOVS     R5,R0
        MOVS     R6,R1
        MOVS     R7,R2
        MOV      R8,R3
        LDR      R4,[SP, #+24]
//  132 	GUI_DrawPoint(xc + x, yc + y, c);
        MOVS     R2,R4
        UXTH     R2,R2            ;; ZeroExt  R2,R2,#+16,#+16
        ADDS     R1,R8,R6
        UXTH     R1,R1            ;; ZeroExt  R1,R1,#+16,#+16
        ADDS     R0,R7,R5
        UXTH     R0,R0            ;; ZeroExt  R0,R0,#+16,#+16
        BL       GUI_DrawPoint
//  133 
//  134 	GUI_DrawPoint(xc - x, yc + y, c);
        MOVS     R2,R4
        UXTH     R2,R2            ;; ZeroExt  R2,R2,#+16,#+16
        ADDS     R1,R8,R6
        UXTH     R1,R1            ;; ZeroExt  R1,R1,#+16,#+16
        SUBS     R0,R5,R7
        UXTH     R0,R0            ;; ZeroExt  R0,R0,#+16,#+16
        BL       GUI_DrawPoint
//  135 
//  136 	GUI_DrawPoint(xc + x, yc - y, c);
        MOVS     R2,R4
        UXTH     R2,R2            ;; ZeroExt  R2,R2,#+16,#+16
        SUBS     R1,R6,R8
        UXTH     R1,R1            ;; ZeroExt  R1,R1,#+16,#+16
        ADDS     R0,R7,R5
        UXTH     R0,R0            ;; ZeroExt  R0,R0,#+16,#+16
        BL       GUI_DrawPoint
//  137 
//  138 	GUI_DrawPoint(xc - x, yc - y, c);
        MOVS     R2,R4
        UXTH     R2,R2            ;; ZeroExt  R2,R2,#+16,#+16
        SUBS     R1,R6,R8
        UXTH     R1,R1            ;; ZeroExt  R1,R1,#+16,#+16
        SUBS     R0,R5,R7
        UXTH     R0,R0            ;; ZeroExt  R0,R0,#+16,#+16
        BL       GUI_DrawPoint
//  139 
//  140 	GUI_DrawPoint(xc + y, yc + x, c);
        MOVS     R2,R4
        UXTH     R2,R2            ;; ZeroExt  R2,R2,#+16,#+16
        ADDS     R1,R7,R6
        UXTH     R1,R1            ;; ZeroExt  R1,R1,#+16,#+16
        ADDS     R0,R8,R5
        UXTH     R0,R0            ;; ZeroExt  R0,R0,#+16,#+16
        BL       GUI_DrawPoint
//  141 
//  142 	GUI_DrawPoint(xc - y, yc + x, c);
        MOVS     R2,R4
        UXTH     R2,R2            ;; ZeroExt  R2,R2,#+16,#+16
        ADDS     R1,R7,R6
        UXTH     R1,R1            ;; ZeroExt  R1,R1,#+16,#+16
        SUBS     R0,R5,R8
        UXTH     R0,R0            ;; ZeroExt  R0,R0,#+16,#+16
        BL       GUI_DrawPoint
//  143 
//  144 	GUI_DrawPoint(xc + y, yc - x, c);
        MOVS     R2,R4
        UXTH     R2,R2            ;; ZeroExt  R2,R2,#+16,#+16
        SUBS     R1,R6,R7
        UXTH     R1,R1            ;; ZeroExt  R1,R1,#+16,#+16
        ADDS     R0,R8,R5
        UXTH     R0,R0            ;; ZeroExt  R0,R0,#+16,#+16
        BL       GUI_DrawPoint
//  145 
//  146 	GUI_DrawPoint(xc - y, yc - x, c);
        MOVS     R2,R4
        UXTH     R2,R2            ;; ZeroExt  R2,R2,#+16,#+16
        SUBS     R1,R6,R7
        UXTH     R1,R1            ;; ZeroExt  R1,R1,#+16,#+16
        SUBS     R0,R5,R8
        UXTH     R0,R0            ;; ZeroExt  R0,R0,#+16,#+16
        BL       GUI_DrawPoint
//  147 }
        POP      {R4-R8,PC}       ;; return
//  148 
//  149 //******************************************************************
//  150 //函数名：  gui_circle
//  151 //功能：    在指定位置画一个指定大小的圆(填充)
//  152 //输入参数：(xc,yc) :圆中心坐标
//  153 //         	c:填充的颜色
//  154 //		 	r:圆半径
//  155 //		 	fill:填充判断标志，1-填充，0-不填充
//  156 //返回值：  无
//  157 //修改记录：无
//  158 //******************************************************************  

        SECTION `.text`:CODE:NOROOT(1)
        THUMB
//  159 void gui_circle(int xc, int yc,u16 c,int r, int fill)
//  160 {
gui_circle:
        PUSH     {R3-R11,LR}
        MOVS     R4,R0
        MOVS     R5,R1
        MOVS     R6,R2
        MOVS     R7,R3
//  161 	int x = 0, y = r, yi, d;
        MOVS     R10,#+0
        MOV      R11,R7
//  162 
//  163 	d = 3 - 2 * r;
        LSLS     R0,R7,#+1
        RSBS     R0,R0,#+3
        MOV      R9,R0
//  164 
//  165 
//  166 	if (fill) 
        LDR      R0,[SP, #+40]
        CMP      R0,#+0
        BEQ.N    ??gui_circle_0
//  167 	{
//  168 		// 如果填充（画实心圆）
//  169 		while (x <= y) {
??gui_circle_1:
        CMP      R11,R10
        BLT.N    ??gui_circle_2
//  170 			for (yi = x; yi <= y; yi++)
        MOV      R8,R10
??gui_circle_3:
        CMP      R11,R8
        BLT.N    ??gui_circle_4
//  171 				_draw_circle_8(xc, yc, x, yi, c);
        UXTH     R6,R6            ;; ZeroExt  R6,R6,#+16,#+16
        STR      R6,[SP, #+0]
        MOV      R3,R8
        MOV      R2,R10
        MOVS     R1,R5
        MOVS     R0,R4
        BL       _draw_circle_8
        ADDS     R8,R8,#+1
        B.N      ??gui_circle_3
//  172 
//  173 			if (d < 0) {
??gui_circle_4:
        CMP      R9,#+0
        BPL.N    ??gui_circle_5
//  174 				d = d + 4 * x + 6;
        LSLS     R0,R10,#+2
        ADDS     R0,R0,#+6
        ADDS     R9,R0,R9
        B.N      ??gui_circle_6
//  175 			} else {
//  176 				d = d + 4 * (x - y) + 10;
??gui_circle_5:
        SUBS     R0,R10,R11
        LSLS     R0,R0,#+2
        ADDS     R0,R0,#+10
        ADDS     R9,R0,R9
//  177 				y--;
        SUBS     R11,R11,#+1
//  178 			}
//  179 			x++;
??gui_circle_6:
        ADDS     R10,R10,#+1
        B.N      ??gui_circle_1
//  180 		}
//  181 	} else 
//  182 	{
//  183 		// 如果不填充（画空心圆）
//  184 		while (x <= y) {
??gui_circle_0:
        CMP      R11,R10
        BLT.N    ??gui_circle_2
//  185 			_draw_circle_8(xc, yc, x, y, c);
        UXTH     R6,R6            ;; ZeroExt  R6,R6,#+16,#+16
        STR      R6,[SP, #+0]
        MOV      R3,R11
        MOV      R2,R10
        MOVS     R1,R5
        MOVS     R0,R4
        BL       _draw_circle_8
//  186 			if (d < 0) {
        CMP      R9,#+0
        BPL.N    ??gui_circle_7
//  187 				d = d + 4 * x + 6;
        LSLS     R0,R10,#+2
        ADDS     R0,R0,#+6
        ADDS     R9,R0,R9
        B.N      ??gui_circle_8
//  188 			} else {
//  189 				d = d + 4 * (x - y) + 10;
??gui_circle_7:
        SUBS     R0,R10,R11
        LSLS     R0,R0,#+2
        ADDS     R0,R0,#+10
        ADDS     R9,R0,R9
//  190 				y--;
        SUBS     R11,R11,#+1
//  191 			}
//  192 			x++;
??gui_circle_8:
        ADDS     R10,R10,#+1
        B.N      ??gui_circle_0
//  193 		}
//  194 	}
//  195 }
??gui_circle_2:
        POP      {R0,R4-R11,PC}   ;; return
//  196 
//  197 //******************************************************************
//  198 //函数名：  LCD_ShowChar
//  199 //功能：    显示单个英文字符
//  200 //输入参数：(x,y):字符显示位置起始坐标
//  201 //        	fc:前置画笔颜色
//  202 //			bc:背景颜色
//  203 //			num:数值（0-94）
//  204 //			size:字体大小
//  205 //			mode:模式  0,填充模式;1,叠加模式
//  206 //返回值：  无
//  207 //修改记录：无
//  208 //******************************************************************  

        SECTION `.text`:CODE:NOROOT(1)
        THUMB
//  209 void LCD_ShowChar(u16 x,u16 y,u16 fc, u16 bc, u8 num,u8 size,u8 mode)
//  210 {  
LCD_ShowChar:
        PUSH     {R3-R11,LR}
        SUB      SP,SP,#+8
        MOVS     R6,R0
        MOVS     R7,R1
        MOV      R8,R2
        LDR      R4,[SP, #+48]
        LDR      R5,[SP, #+52]
//  211     u8 temp;
//  212     u8 pos,t;
//  213 	u16 colortemp=POINT_COLOR;      
        LDR.W    R0,??DataTable11_1
        LDRH     R0,[R0, #+0]
        STRH     R0,[SP, #+0]
//  214 		   
//  215 	num=num-' ';//得到偏移后的值
        SUBS     R4,R4,#+32
//  216 	LCD_SetWindows(x,y,x+size/2-1,y+size-1);//设置单个文字显示窗口
        UXTAB    R0,R7,R5
        SUBS     R3,R0,#+1
        UXTH     R3,R3            ;; ZeroExt  R3,R3,#+16,#+16
        UXTB     R5,R5            ;; ZeroExt  R5,R5,#+24,#+24
        MOVS     R0,#+2
        SDIV     R0,R5,R0
        ADDS     R0,R0,R6
        SUBS     R2,R0,#+1
        UXTH     R2,R2            ;; ZeroExt  R2,R2,#+16,#+16
        MOVS     R1,R7
        UXTH     R1,R1            ;; ZeroExt  R1,R1,#+16,#+16
        MOVS     R0,R6
        UXTH     R0,R0            ;; ZeroExt  R0,R0,#+16,#+16
        BL       LCD_SetWindows
//  217 	if(!mode) //非叠加方式
        LDRB     R0,[SP, #+56]
        CMP      R0,#+0
        BNE.N    ??LCD_ShowChar_0
//  218 	{
//  219 		
//  220 		for(pos=0;pos<size;pos++)
        MOVS     R0,#+0
        MOV      R10,R0
??LCD_ShowChar_1:
        UXTB     R10,R10          ;; ZeroExt  R10,R10,#+24,#+24
        UXTB     R5,R5            ;; ZeroExt  R5,R5,#+24,#+24
        CMP      R10,R5
        BCS.N    ??LCD_ShowChar_2
//  221 		{
//  222 			if(size==12)temp=asc2_1206[num][pos];//调用1206字体
        UXTB     R5,R5            ;; ZeroExt  R5,R5,#+24,#+24
        CMP      R5,#+12
        BNE.N    ??LCD_ShowChar_3
        UXTB     R10,R10          ;; ZeroExt  R10,R10,#+24,#+24
        UXTB     R4,R4            ;; ZeroExt  R4,R4,#+24,#+24
        MOVS     R0,#+12
        LDR.W    R1,??DataTable11_2
        MLA      R0,R0,R4,R1
        LDRB     R0,[R10, R0]
        MOV      R9,R0
        B.N      ??LCD_ShowChar_4
//  223 			else temp=asc2_1608[num][pos];		 //调用1608字体
??LCD_ShowChar_3:
        UXTB     R10,R10          ;; ZeroExt  R10,R10,#+24,#+24
        UXTB     R4,R4            ;; ZeroExt  R4,R4,#+24,#+24
        LDR.W    R0,??DataTable11_3
        ADDS     R0,R0,R4, LSL #+4
        LDRB     R0,[R10, R0]
        MOV      R9,R0
//  224 			for(t=0;t<size/2;t++)
??LCD_ShowChar_4:
        MOVS     R0,#+0
        MOV      R11,R0
??LCD_ShowChar_5:
        UXTB     R5,R5            ;; ZeroExt  R5,R5,#+24,#+24
        MOVS     R0,#+2
        SDIV     R0,R5,R0
        UXTB     R11,R11          ;; ZeroExt  R11,R11,#+24,#+24
        CMP      R11,R0
        BGE.N    ??LCD_ShowChar_6
//  225 		    {                 
//  226 		        if(temp&0x01)LCD_WR_DATA(fc); 
        LSLS     R0,R9,#+31
        BPL.N    ??LCD_ShowChar_7
        MOV      R0,R8
        UXTB     R0,R0            ;; ZeroExt  R0,R0,#+24,#+24
        BL       LCD_WR_DATA
        B.N      ??LCD_ShowChar_8
//  227 				else LCD_WR_DATA(bc); 
??LCD_ShowChar_7:
        LDRH     R0,[SP, #+8]
        UXTB     R0,R0            ;; ZeroExt  R0,R0,#+24,#+24
        BL       LCD_WR_DATA
//  228 				temp>>=1; 
??LCD_ShowChar_8:
        UXTB     R9,R9            ;; ZeroExt  R9,R9,#+24,#+24
        LSRS     R9,R9,#+1
//  229 				
//  230 		    }
        ADDS     R11,R11,#+1
        B.N      ??LCD_ShowChar_5
//  231 			
//  232 		}	
??LCD_ShowChar_6:
        ADDS     R10,R10,#+1
        B.N      ??LCD_ShowChar_1
//  233 	}else//叠加方式
//  234 	{
//  235 		for(pos=0;pos<size;pos++)
??LCD_ShowChar_0:
        MOVS     R0,#+0
        MOV      R10,R0
??LCD_ShowChar_9:
        UXTB     R10,R10          ;; ZeroExt  R10,R10,#+24,#+24
        UXTB     R5,R5            ;; ZeroExt  R5,R5,#+24,#+24
        CMP      R10,R5
        BCS.N    ??LCD_ShowChar_2
//  236 		{
//  237 			if(size==12)temp=asc2_1206[num][pos];//调用1206字体
        UXTB     R5,R5            ;; ZeroExt  R5,R5,#+24,#+24
        CMP      R5,#+12
        BNE.N    ??LCD_ShowChar_10
        UXTB     R10,R10          ;; ZeroExt  R10,R10,#+24,#+24
        UXTB     R4,R4            ;; ZeroExt  R4,R4,#+24,#+24
        MOVS     R0,#+12
        LDR.W    R1,??DataTable11_2
        MLA      R0,R0,R4,R1
        LDRB     R0,[R10, R0]
        MOV      R9,R0
        B.N      ??LCD_ShowChar_11
//  238 			else temp=asc2_1608[num][pos];		 //调用1608字体
??LCD_ShowChar_10:
        UXTB     R10,R10          ;; ZeroExt  R10,R10,#+24,#+24
        UXTB     R4,R4            ;; ZeroExt  R4,R4,#+24,#+24
        LDR.W    R0,??DataTable11_3
        ADDS     R0,R0,R4, LSL #+4
        LDRB     R0,[R10, R0]
        MOV      R9,R0
//  239 			for(t=0;t<size/2;t++)
??LCD_ShowChar_11:
        MOVS     R0,#+0
        MOV      R11,R0
??LCD_ShowChar_12:
        UXTB     R5,R5            ;; ZeroExt  R5,R5,#+24,#+24
        MOVS     R0,#+2
        SDIV     R0,R5,R0
        UXTB     R11,R11          ;; ZeroExt  R11,R11,#+24,#+24
        CMP      R11,R0
        BGE.N    ??LCD_ShowChar_13
//  240 		    {   
//  241 				POINT_COLOR=fc;              
        LDR.W    R0,??DataTable11_1
        STRH     R8,[R0, #+0]
//  242 		        if(temp&0x01)LCD_DrawPoint(x+t,y+pos);//画一个点    
        LSLS     R0,R9,#+31
        BPL.N    ??LCD_ShowChar_14
        UXTAB    R1,R7,R10
        UXTH     R1,R1            ;; ZeroExt  R1,R1,#+16,#+16
        UXTAB    R0,R6,R11
        UXTH     R0,R0            ;; ZeroExt  R0,R0,#+16,#+16
        BL       LCD_DrawPoint
//  243 		        temp>>=1; 
??LCD_ShowChar_14:
        UXTB     R9,R9            ;; ZeroExt  R9,R9,#+24,#+24
        LSRS     R9,R9,#+1
//  244 		    }
        ADDS     R11,R11,#+1
        B.N      ??LCD_ShowChar_12
//  245 		}
??LCD_ShowChar_13:
        ADDS     R10,R10,#+1
        B.N      ??LCD_ShowChar_9
//  246 	}
//  247 	POINT_COLOR=colortemp;	
??LCD_ShowChar_2:
        LDR.W    R0,??DataTable11_1
        LDRH     R1,[SP, #+0]
        STRH     R1,[R0, #+0]
//  248 	LCD_SetWindows(0,0,lcddev.width-1,lcddev.height-1);//恢复窗口为全屏    	   	 	  
        LDR.W    R0,??DataTable11
        LDRH     R0,[R0, #+2]
        SUBS     R3,R0,#+1
        UXTH     R3,R3            ;; ZeroExt  R3,R3,#+16,#+16
        LDR.W    R0,??DataTable11
        LDRH     R0,[R0, #+0]
        SUBS     R2,R0,#+1
        UXTH     R2,R2            ;; ZeroExt  R2,R2,#+16,#+16
        MOVS     R1,#+0
        MOVS     R0,#+0
        BL       LCD_SetWindows
//  249 } 
        POP      {R0-R2,R4-R11,PC}  ;; return
//  250 
//  251 //******************************************************************
//  252 //函数名：  LCD_ShowChar
//  253 //功能：    显示单个英文字符
//  254 //输入参数：(x,y):字符显示位置起始坐标
//  255 //        	fc:前置画笔颜色
//  256 //			bc:背景颜色
//  257 //			num:数值（0-94）
//  258 //			size:字体大小
//  259 //			mode:模式  0,填充模式;1,叠加模式
//  260 //返回值：  无
//  261 //修改记录：无
//  262 //******************************************************************  

        SECTION `.text`:CODE:NOROOT(1)
        THUMB
//  263 void LCD_ShowNum2412(u16 x,u16 y,u16 fc, u16 bc,u8 *p ,u8 size,u8 mode)
//  264 {  
LCD_ShowNum2412:
        PUSH     {R1-R11,LR}
        MOV      R9,R0
        MOVS     R4,R1
        LDR      R5,[SP, #+48]
//  265     u16 temp;
//  266     u8 pos,t;
//  267 	u16 colortemp=POINT_COLOR;      
        LDR.W    R0,??DataTable11_1
        LDRH     R0,[R0, #+0]
        STRH     R0,[SP, #+2]
//  268 	u16 x0=x;
        MOV      R10,R9
//  269 	u16 y0=y; 
        STRH     R4,[SP, #+0]
//  270 	u8 num=0;
        MOVS     R11,#+0
//  271 	
//  272 
//  273     while((*p<='~')&&(*p>=' '))//判断是不是非法字符!
??LCD_ShowNum2412_0:
        LDRB     R0,[R5, #+0]
        CMP      R0,#+127
        BCS.N    ??LCD_ShowNum2412_1
        LDRB     R0,[R5, #+0]
        CMP      R0,#+32
        BCC.N    ??LCD_ShowNum2412_1
//  274     {   
//  275 
//  276 		if(x>(lcddev.width-1)||y>(lcddev.height-1)) 
        LDR.W    R0,??DataTable11
        LDRH     R0,[R0, #+0]
        SUBS     R0,R0,#+1
        UXTH     R9,R9            ;; ZeroExt  R9,R9,#+16,#+16
        CMP      R0,R9
        BLT.N    ??LCD_ShowNum2412_2
        LDR.W    R0,??DataTable11
        LDRH     R0,[R0, #+2]
        SUBS     R0,R0,#+1
        UXTH     R4,R4            ;; ZeroExt  R4,R4,#+16,#+16
        CMP      R0,R4
        BGE.N    ??LCD_ShowNum2412_3
//  277 		return;   
??LCD_ShowNum2412_2:
        B.N      ??LCD_ShowNum2412_4
//  278 		num=*p;
??LCD_ShowNum2412_3:
        LDRB     R0,[R5, #+0]
        MOV      R11,R0
//  279 		if(':'==num) //特殊字符":"
        UXTB     R11,R11          ;; ZeroExt  R11,R11,#+24,#+24
        CMP      R11,#+58
        BNE.N    ??LCD_ShowNum2412_5
//  280 		num=10;	
        MOVS     R0,#+10
        MOV      R11,R0
        B.N      ??LCD_ShowNum2412_6
//  281 		else if('.'==num)//特殊字符"."
??LCD_ShowNum2412_5:
        UXTB     R11,R11          ;; ZeroExt  R11,R11,#+24,#+24
        CMP      R11,#+46
        BNE.N    ??LCD_ShowNum2412_7
//  282 		num=11;	
        MOVS     R0,#+11
        MOV      R11,R0
        B.N      ??LCD_ShowNum2412_6
//  283 		else  //纯数字   	
//  284 		num=num-'0';   
??LCD_ShowNum2412_7:
        SUBS     R11,R11,#+48
//  285 		x0=x;
??LCD_ShowNum2412_6:
        MOV      R10,R9
//  286 		    
//  287 		for(pos=0;pos<48;pos++)
        MOVS     R0,#+0
        MOVS     R7,R0
??LCD_ShowNum2412_8:
        UXTB     R7,R7            ;; ZeroExt  R7,R7,#+24,#+24
        CMP      R7,#+48
        BCS.N    ??LCD_ShowNum2412_9
//  288 		{
//  289 			temp=asc2_2412[num][pos];
        UXTB     R7,R7            ;; ZeroExt  R7,R7,#+24,#+24
        UXTB     R11,R11          ;; ZeroExt  R11,R11,#+24,#+24
        MOVS     R0,#+48
        LDR.W    R1,??DataTable11_4
        MLA      R0,R0,R11,R1
        LDRB     R0,[R7, R0]
        MOVS     R6,R0
//  290 			for(t=0;t<8;t++)
        MOVS     R0,#+0
        MOV      R8,R0
??LCD_ShowNum2412_10:
        UXTB     R8,R8            ;; ZeroExt  R8,R8,#+24,#+24
        CMP      R8,#+8
        BCS.N    ??LCD_ShowNum2412_11
//  291 		    {   
//  292 				POINT_COLOR=fc;              
        LDR.W    R0,??DataTable11_1
        LDRH     R1,[SP, #+4]
        STRH     R1,[R0, #+0]
//  293 		        if(temp&0x80)LCD_DrawPoint(x,y);//画一个点  
        LSLS     R0,R6,#+24
        BPL.N    ??LCD_ShowNum2412_12
        MOVS     R1,R4
        UXTH     R1,R1            ;; ZeroExt  R1,R1,#+16,#+16
        MOV      R0,R9
        UXTH     R0,R0            ;; ZeroExt  R0,R0,#+16,#+16
        BL       LCD_DrawPoint
//  294 				//else LCD_WR_DATA_16Bit(bc);   
//  295 		        temp<<=1; 
??LCD_ShowNum2412_12:
        LSLS     R6,R6,#+1
//  296 				x++;
        ADDS     R9,R9,#+1
//  297 				if((x-x0)==12)
        UXTH     R9,R9            ;; ZeroExt  R9,R9,#+16,#+16
        UXTH     R10,R10          ;; ZeroExt  R10,R10,#+16,#+16
        SUBS     R0,R9,R10
        CMP      R0,#+12
        BNE.N    ??LCD_ShowNum2412_13
//  298 				{
//  299 					x=x0;
        MOV      R9,R10
//  300 					y++;
        ADDS     R4,R4,#+1
//  301 					break;
        B.N      ??LCD_ShowNum2412_11
//  302 				}
//  303 		    }
??LCD_ShowNum2412_13:
        ADDS     R8,R8,#+1
        B.N      ??LCD_ShowNum2412_10
//  304 		}
??LCD_ShowNum2412_11:
        ADDS     R7,R7,#+1
        B.N      ??LCD_ShowNum2412_8
//  305 	if(num<10)
??LCD_ShowNum2412_9:
        UXTB     R11,R11          ;; ZeroExt  R11,R11,#+24,#+24
        CMP      R11,#+10
        BCS.N    ??LCD_ShowNum2412_14
//  306 	x+=16;	//人为控制字距，使得排版更好看，原值为12
        ADDS     R9,R9,#+16
        B.N      ??LCD_ShowNum2412_15
//  307 	else
//  308 	x+=8; //人为控制字距，使得排版更好看，原值为12
??LCD_ShowNum2412_14:
        ADDS     R9,R9,#+8
//  309 
//  310 	y=y0;
??LCD_ShowNum2412_15:
        LDRH     R0,[SP, #+0]
        MOVS     R4,R0
//  311     p++;
        ADDS     R5,R5,#+1
        B.N      ??LCD_ShowNum2412_0
//  312     }  
//  313 	POINT_COLOR=colortemp;	 	 	  
??LCD_ShowNum2412_1:
        LDR.W    R0,??DataTable11_1
        LDRH     R1,[SP, #+2]
        STRH     R1,[R0, #+0]
//  314 } 
??LCD_ShowNum2412_4:
        POP      {R0-R2,R4-R11,PC}  ;; return
//  315 
//  316 
//  317 //******************************************************************
//  318 //函数名：  LCD_ShowString
//  319 //功能：    显示英文字符串
//  320 //输入参数：x,y :起点坐标	 
//  321 //			size:字体大小
//  322 //			*p:字符串起始地址
//  323 //			mode:模式	0,填充模式;1,叠加模式
//  324 //返回值：  无
//  325 //修改记录：无
//  326 //******************************************************************  	  

        SECTION `.text`:CODE:NOROOT(1)
        THUMB
//  327 void LCD_ShowString(u16 x,u16 y,u8 size,u8 *p,u8 mode)
//  328 {         
LCD_ShowString:
        PUSH     {R4-R8,LR}
        SUB      SP,SP,#+16
        MOVS     R5,R0
        MOVS     R6,R1
        MOVS     R7,R2
        MOV      R8,R3
        LDR      R4,[SP, #+40]
//  329     while((*p<='~')&&(*p>=' '))//判断是不是非法字符!
??LCD_ShowString_0:
        LDRB     R0,[R8, #+0]
        CMP      R0,#+127
        BCS.N    ??LCD_ShowString_1
        LDRB     R0,[R8, #+0]
        CMP      R0,#+32
        BCC.N    ??LCD_ShowString_1
//  330     {   
//  331 		if(x>(lcddev.width-1)||y>(lcddev.height-1)) 
        LDR.W    R0,??DataTable11
        LDRH     R0,[R0, #+0]
        SUBS     R0,R0,#+1
        UXTH     R5,R5            ;; ZeroExt  R5,R5,#+16,#+16
        CMP      R0,R5
        BLT.N    ??LCD_ShowString_2
        LDR.W    R0,??DataTable11
        LDRH     R0,[R0, #+2]
        SUBS     R0,R0,#+1
        UXTH     R6,R6            ;; ZeroExt  R6,R6,#+16,#+16
        CMP      R0,R6
        BGE.N    ??LCD_ShowString_3
//  332 		return;     
??LCD_ShowString_2:
        B.N      ??LCD_ShowString_4
//  333         LCD_ShowChar(x,y,POINT_COLOR,BACK_COLOR,*p,size,mode);
??LCD_ShowString_3:
        UXTB     R4,R4            ;; ZeroExt  R4,R4,#+24,#+24
        STR      R4,[SP, #+8]
        UXTB     R7,R7            ;; ZeroExt  R7,R7,#+24,#+24
        STR      R7,[SP, #+4]
        LDRB     R0,[R8, #+0]
        STR      R0,[SP, #+0]
        LDR.W    R0,??DataTable11_5
        LDRH     R3,[R0, #+0]
        LDR.W    R0,??DataTable11_1
        LDRH     R2,[R0, #+0]
        MOVS     R1,R6
        UXTH     R1,R1            ;; ZeroExt  R1,R1,#+16,#+16
        MOVS     R0,R5
        UXTH     R0,R0            ;; ZeroExt  R0,R0,#+16,#+16
        BL       LCD_ShowChar
//  334         x+=size/2;
        UXTB     R7,R7            ;; ZeroExt  R7,R7,#+24,#+24
        MOVS     R0,#+2
        SDIV     R0,R7,R0
        ADDS     R5,R0,R5
//  335         p++;
        ADDS     R8,R8,#+1
        B.N      ??LCD_ShowString_0
//  336     }  
//  337 } 
??LCD_ShowString_1:
??LCD_ShowString_4:
        POP      {R0-R8,PC}       ;; return
//  338 
//  339 //******************************************************************
//  340 //函数名：  mypow
//  341 //功能：    求m的n次方(gui内部调用)
//  342 //输入参数：m:乘数
//  343 //	        n:幂
//  344 //返回值：  m的n次方
//  345 //修改记录：无
//  346 //******************************************************************  

        SECTION `.text`:CODE:NOROOT(1)
        THUMB
//  347 u32 mypow(u8 m,u8 n)
//  348 {
mypow:
        MOVS     R2,R0
//  349 	u32 result=1;	 
        MOVS     R0,#+1
//  350 	while(n--)result*=m;    
??mypow_0:
        MOVS     R3,R1
        SUBS     R1,R3,#+1
        UXTB     R3,R3            ;; ZeroExt  R3,R3,#+24,#+24
        CMP      R3,#+0
        BEQ.N    ??mypow_1
        UXTB     R2,R2            ;; ZeroExt  R2,R2,#+24,#+24
        MULS     R0,R2,R0
        B.N      ??mypow_0
//  351 	return result;
??mypow_1:
        BX       LR               ;; return
//  352 }
//  353 
//  354 //******************************************************************
//  355 //函数名：  LCD_ShowNum
//  356 //功能：    显示单个数字变量值
//  357 //输入参数：x,y :起点坐标	 
//  358 //			len :指定显示数字的位数
//  359 //			size:字体大小(12,16)
//  360 //			color:颜色
//  361 //			num:数值(0~4294967295)
//  362 //返回值：  无
//  363 //修改记录：无
//  364 //******************************************************************  			 

        SECTION `.text`:CODE:NOROOT(1)
        THUMB
//  365 void LCD_ShowNum(u16 x,u16 y,u32 num,u8 len,u8 size)
//  366 {         	
LCD_ShowNum:
        PUSH     {R1-R11,LR}
        MOVS     R5,R0
        MOV      R11,R1
        MOVS     R6,R2
        MOVS     R7,R3
        LDR      R4,[SP, #+48]
//  367 	u8 t,temp;
//  368 	u8 enshow=0;						   
        MOVS     R10,#+0
//  369 	for(t=0;t<len;t++)
        MOVS     R0,#+0
        MOV      R8,R0
??LCD_ShowNum_0:
        UXTB     R8,R8            ;; ZeroExt  R8,R8,#+24,#+24
        UXTB     R7,R7            ;; ZeroExt  R7,R7,#+24,#+24
        CMP      R8,R7
        BCS.N    ??LCD_ShowNum_1
//  370 	{
//  371 		temp=(num/mypow(10,len-t-1))%10;
        SUBS     R0,R7,R8
        SUBS     R1,R0,#+1
        UXTB     R1,R1            ;; ZeroExt  R1,R1,#+24,#+24
        MOVS     R0,#+10
        BL       mypow
        UDIV     R0,R6,R0
        MOVS     R1,#+10
        UDIV     R2,R0,R1
        MLS      R0,R1,R2,R0
        MOV      R9,R0
//  372 		if(enshow==0&&t<(len-1))
        UXTB     R10,R10          ;; ZeroExt  R10,R10,#+24,#+24
        CMP      R10,#+0
        BNE.N    ??LCD_ShowNum_2
        UXTB     R8,R8            ;; ZeroExt  R8,R8,#+24,#+24
        UXTB     R7,R7            ;; ZeroExt  R7,R7,#+24,#+24
        SUBS     R0,R7,#+1
        CMP      R8,R0
        BGE.N    ??LCD_ShowNum_2
//  373 		{
//  374 			if(temp==0)
        UXTB     R9,R9            ;; ZeroExt  R9,R9,#+24,#+24
        CMP      R9,#+0
        BNE.N    ??LCD_ShowNum_3
//  375 			{
//  376 				LCD_ShowChar(x+(size/2)*t,y,POINT_COLOR,BACK_COLOR,' ',size,1);
        MOVS     R0,#+1
        STR      R0,[SP, #+8]
        UXTB     R4,R4            ;; ZeroExt  R4,R4,#+24,#+24
        STR      R4,[SP, #+4]
        MOVS     R0,#+32
        STR      R0,[SP, #+0]
        LDR.W    R0,??DataTable11_5
        LDRH     R3,[R0, #+0]
        LDR.W    R0,??DataTable11_1
        LDRH     R2,[R0, #+0]
        MOV      R1,R11
        UXTH     R1,R1            ;; ZeroExt  R1,R1,#+16,#+16
        UXTB     R4,R4            ;; ZeroExt  R4,R4,#+24,#+24
        MOVS     R0,#+2
        SDIV     R0,R4,R0
        UXTB     R8,R8            ;; ZeroExt  R8,R8,#+24,#+24
        MUL      R0,R8,R0
        UXTAH    R0,R0,R5
        UXTH     R0,R0            ;; ZeroExt  R0,R0,#+16,#+16
        BL       LCD_ShowChar
//  377 				continue;
        B.N      ??LCD_ShowNum_4
//  378 			}else enshow=1; 
??LCD_ShowNum_3:
        MOVS     R0,#+1
        MOV      R10,R0
//  379 		 	 
//  380 		}
//  381 	 	LCD_ShowChar(x+(size/2)*t,y,POINT_COLOR,BACK_COLOR,temp+'0',size,1); 
??LCD_ShowNum_2:
        MOVS     R0,#+1
        STR      R0,[SP, #+8]
        UXTB     R4,R4            ;; ZeroExt  R4,R4,#+24,#+24
        STR      R4,[SP, #+4]
        ADDS     R0,R9,#+48
        UXTB     R0,R0            ;; ZeroExt  R0,R0,#+24,#+24
        STR      R0,[SP, #+0]
        LDR.W    R0,??DataTable11_5
        LDRH     R3,[R0, #+0]
        LDR.W    R0,??DataTable11_1
        LDRH     R2,[R0, #+0]
        MOV      R1,R11
        UXTH     R1,R1            ;; ZeroExt  R1,R1,#+16,#+16
        UXTB     R4,R4            ;; ZeroExt  R4,R4,#+24,#+24
        MOVS     R0,#+2
        SDIV     R0,R4,R0
        UXTB     R8,R8            ;; ZeroExt  R8,R8,#+24,#+24
        MUL      R0,R8,R0
        UXTAH    R0,R0,R5
        UXTH     R0,R0            ;; ZeroExt  R0,R0,#+16,#+16
        BL       LCD_ShowChar
//  382 	}
??LCD_ShowNum_4:
        ADDS     R8,R8,#+1
        B.N      ??LCD_ShowNum_0
//  383 } 
??LCD_ShowNum_1:
        POP      {R0-R2,R4-R11,PC}  ;; return
//  384 
//  385 //******************************************************************
//  386 //函数名：  GUI_DrawFont16
//  387 //功能：    显示单个16X16中文字体
//  388 //输入参数：x,y :起点坐标
//  389 //			fc:前置画笔颜色
//  390 //			bc:背景颜色	 
//  391 //			s:字符串地址
//  392 //			mode:模式	0,填充模式;1,叠加模式
//  393 //返回值：  无
//  394 //修改记录：无
//  395 //******************************************************************

        SECTION `.text`:CODE:NOROOT(1)
        THUMB
//  396 void GUI_DrawFont16(u16 x, u16 y, u16 fc, u16 bc, u8 *s,u8 mode)
//  397 {
GUI_DrawFont16:
        PUSH     {R3-R11,LR}
        SUB      SP,SP,#+8
        MOVS     R4,R0
        MOVS     R5,R1
        MOVS     R6,R2
        LDR      R11,[SP, #+52]
//  398 	u8 i,j;
//  399 	u16 k;
//  400 	u16 HZnum;
//  401 	u16 x0=x;
        MOV      R10,R4
//  402 	HZnum=sizeof(tfont16)/sizeof(typFNT_GB16);	//自动统计汉字数目
        MOVS     R0,#+5
        STRH     R0,[SP, #+0]
//  403 	
//  404 			
//  405 	for (k=0;k<HZnum;k++) 
        MOVS     R0,#+0
        MOV      R9,R0
??GUI_DrawFont16_0:
        LDRH     R0,[SP, #+0]
        UXTH     R9,R9            ;; ZeroExt  R9,R9,#+16,#+16
        CMP      R9,R0
        BCS.N    ??GUI_DrawFont16_1
//  406 	{
//  407 	  if ((tfont16[k].Index[0]==*(s))&&(tfont16[k].Index[1]==*(s+1)))
        UXTH     R9,R9            ;; ZeroExt  R9,R9,#+16,#+16
        MOVS     R0,#+34
        LDR.W    R1,??DataTable11_6
        MLA      R0,R0,R9,R1
        LDRB     R0,[R0, #+0]
        LDR      R1,[SP, #+48]
        LDRB     R1,[R1, #+0]
        CMP      R0,R1
        BNE.N    ??GUI_DrawFont16_2
        UXTH     R9,R9            ;; ZeroExt  R9,R9,#+16,#+16
        MOVS     R0,#+34
        LDR.W    R1,??DataTable11_6
        MLA      R0,R0,R9,R1
        LDRB     R0,[R0, #+1]
        LDR      R1,[SP, #+48]
        LDRB     R1,[R1, #+1]
        CMP      R0,R1
        BNE.N    ??GUI_DrawFont16_2
//  408 	  { 	LCD_SetWindows(x,y,x+16-1,y+16-1);
        ADDS     R3,R5,#+15
        UXTH     R3,R3            ;; ZeroExt  R3,R3,#+16,#+16
        ADDS     R2,R4,#+15
        UXTH     R2,R2            ;; ZeroExt  R2,R2,#+16,#+16
        MOVS     R1,R5
        UXTH     R1,R1            ;; ZeroExt  R1,R1,#+16,#+16
        MOVS     R0,R4
        UXTH     R0,R0            ;; ZeroExt  R0,R0,#+16,#+16
        BL       LCD_SetWindows
//  409 		    for(i=0;i<16*2;i++)
        MOVS     R0,#+0
        MOVS     R7,R0
??GUI_DrawFont16_3:
        UXTB     R7,R7            ;; ZeroExt  R7,R7,#+24,#+24
        CMP      R7,#+32
        BCS.N    ??GUI_DrawFont16_2
//  410 		    {
//  411 				for(j=0;j<8;j++)
        MOVS     R0,#+0
        MOV      R8,R0
??GUI_DrawFont16_4:
        UXTB     R8,R8            ;; ZeroExt  R8,R8,#+24,#+24
        CMP      R8,#+8
        BCS.N    ??GUI_DrawFont16_5
//  412 		    	{	
//  413 					if(!mode) //非叠加方式
        UXTB     R11,R11          ;; ZeroExt  R11,R11,#+24,#+24
        CMP      R11,#+0
        BNE.N    ??GUI_DrawFont16_6
//  414 					{
//  415 						if(tfont16[k].Msk[i]&(0x80>>j))	LCD_WR_DATA_16Bit(fc);
        UXTB     R7,R7            ;; ZeroExt  R7,R7,#+24,#+24
        UXTH     R9,R9            ;; ZeroExt  R9,R9,#+16,#+16
        MOVS     R0,#+34
        LDR.W    R1,??DataTable11_6
        MLA      R0,R0,R9,R1
        ADDS     R0,R7,R0
        LDRB     R0,[R0, #+2]
        MOVS     R1,#+128
        ASRS     R1,R1,R8
        TST      R0,R1
        BEQ.N    ??GUI_DrawFont16_7
        MOVS     R0,R6
        UXTH     R0,R0            ;; ZeroExt  R0,R0,#+16,#+16
        BL       LCD_WR_DATA_16Bit
        B.N      ??GUI_DrawFont16_8
//  416 						else LCD_WR_DATA_16Bit(bc);
??GUI_DrawFont16_7:
        LDRH     R0,[SP, #+8]
        BL       LCD_WR_DATA_16Bit
        B.N      ??GUI_DrawFont16_8
//  417 					}
//  418 					else
//  419 					{
//  420 						POINT_COLOR=fc;
??GUI_DrawFont16_6:
        LDR.W    R0,??DataTable11_1
        STRH     R6,[R0, #+0]
//  421 						if(tfont16[k].Msk[i]&(0x80>>j))	LCD_DrawPoint(x,y);//画一个点
        UXTB     R7,R7            ;; ZeroExt  R7,R7,#+24,#+24
        UXTH     R9,R9            ;; ZeroExt  R9,R9,#+16,#+16
        MOVS     R0,#+34
        LDR.W    R1,??DataTable11_6
        MLA      R0,R0,R9,R1
        ADDS     R0,R7,R0
        LDRB     R0,[R0, #+2]
        MOVS     R1,#+128
        ASRS     R1,R1,R8
        TST      R0,R1
        BEQ.N    ??GUI_DrawFont16_9
        MOVS     R1,R5
        UXTH     R1,R1            ;; ZeroExt  R1,R1,#+16,#+16
        MOVS     R0,R4
        UXTH     R0,R0            ;; ZeroExt  R0,R0,#+16,#+16
        BL       LCD_DrawPoint
//  422 						x++;
??GUI_DrawFont16_9:
        ADDS     R4,R4,#+1
//  423 						if((x-x0)==16)
        UXTH     R4,R4            ;; ZeroExt  R4,R4,#+16,#+16
        UXTH     R10,R10          ;; ZeroExt  R10,R10,#+16,#+16
        SUBS     R0,R4,R10
        CMP      R0,#+16
        BNE.N    ??GUI_DrawFont16_8
//  424 						{
//  425 							x=x0;
        MOV      R4,R10
//  426 							y++;
        ADDS     R5,R5,#+1
//  427 							break;
        B.N      ??GUI_DrawFont16_5
//  428 						}
//  429 					}
//  430 
//  431 				}
??GUI_DrawFont16_8:
        ADDS     R8,R8,#+1
        B.N      ??GUI_DrawFont16_4
//  432 				
//  433 			}
??GUI_DrawFont16_5:
        ADDS     R7,R7,#+1
        B.N      ??GUI_DrawFont16_3
//  434 			
//  435 			
//  436 		}				  	
//  437 		continue;  //查找到对应点阵字库立即退出，防止多个汉字重复取模带来影响
//  438 	}
??GUI_DrawFont16_2:
        ADDS     R9,R9,#+1
        B.N      ??GUI_DrawFont16_0
//  439 
//  440 	LCD_SetWindows(0,0,lcddev.width-1,lcddev.height-1);//恢复窗口为全屏  
??GUI_DrawFont16_1:
        LDR.W    R0,??DataTable11
        LDRH     R0,[R0, #+2]
        SUBS     R3,R0,#+1
        UXTH     R3,R3            ;; ZeroExt  R3,R3,#+16,#+16
        LDR.W    R0,??DataTable11
        LDRH     R0,[R0, #+0]
        SUBS     R2,R0,#+1
        UXTH     R2,R2            ;; ZeroExt  R2,R2,#+16,#+16
        MOVS     R1,#+0
        MOVS     R0,#+0
        BL       LCD_SetWindows
//  441 } 
        POP      {R0-R2,R4-R11,PC}  ;; return
//  442 
//  443 //******************************************************************
//  444 //函数名：  GUI_DrawFont24
//  445 //功能：    显示单个24X24中文字体
//  446 //输入参数：x,y :起点坐标
//  447 //			fc:前置画笔颜色
//  448 //			bc:背景颜色	 
//  449 //			s:字符串地址
//  450 //			mode:模式	0,填充模式;1,叠加模式
//  451 //返回值：  无
//  452 //修改记录：无
//  453 //******************************************************************

        SECTION `.text`:CODE:NOROOT(1)
        THUMB
//  454 void GUI_DrawFont24(u16 x, u16 y, u16 fc, u16 bc, u8 *s,u8 mode)
//  455 {
GUI_DrawFont24:
        PUSH     {R3-R11,LR}
        SUB      SP,SP,#+8
        MOVS     R4,R0
        MOVS     R5,R1
        MOVS     R6,R2
        LDR      R11,[SP, #+52]
//  456 	u8 i,j;
//  457 	u16 k;
//  458 	u16 HZnum;
//  459 	u16 x0=x;
        MOV      R10,R4
//  460 	HZnum=sizeof(tfont24)/sizeof(typFNT_GB24);	//自动统计汉字数目
        MOVS     R0,#+11
        STRH     R0,[SP, #+0]
//  461 		
//  462 			for (k=0;k<HZnum;k++) 
        MOVS     R0,#+0
        MOV      R9,R0
??GUI_DrawFont24_0:
        LDRH     R0,[SP, #+0]
        UXTH     R9,R9            ;; ZeroExt  R9,R9,#+16,#+16
        CMP      R9,R0
        BCS.N    ??GUI_DrawFont24_1
//  463 			{
//  464 			  if ((tfont24[k].Index[0]==*(s))&&(tfont24[k].Index[1]==*(s+1)))
        UXTH     R9,R9            ;; ZeroExt  R9,R9,#+16,#+16
        MOVS     R0,#+74
        LDR.W    R1,??DataTable11_7
        MLA      R0,R0,R9,R1
        LDRB     R0,[R0, #+0]
        LDR      R1,[SP, #+48]
        LDRB     R1,[R1, #+0]
        CMP      R0,R1
        BNE.N    ??GUI_DrawFont24_2
        UXTH     R9,R9            ;; ZeroExt  R9,R9,#+16,#+16
        MOVS     R0,#+74
        LDR.W    R1,??DataTable11_7
        MLA      R0,R0,R9,R1
        LDRB     R0,[R0, #+1]
        LDR      R1,[SP, #+48]
        LDRB     R1,[R1, #+1]
        CMP      R0,R1
        BNE.N    ??GUI_DrawFont24_2
//  465 			  { 	LCD_SetWindows(x,y,x+24-1,y+24-1);
        ADDS     R3,R5,#+23
        UXTH     R3,R3            ;; ZeroExt  R3,R3,#+16,#+16
        ADDS     R2,R4,#+23
        UXTH     R2,R2            ;; ZeroExt  R2,R2,#+16,#+16
        MOVS     R1,R5
        UXTH     R1,R1            ;; ZeroExt  R1,R1,#+16,#+16
        MOVS     R0,R4
        UXTH     R0,R0            ;; ZeroExt  R0,R0,#+16,#+16
        BL       LCD_SetWindows
//  466 				    for(i=0;i<24*3;i++)
        MOVS     R0,#+0
        MOVS     R7,R0
??GUI_DrawFont24_3:
        UXTB     R7,R7            ;; ZeroExt  R7,R7,#+24,#+24
        CMP      R7,#+72
        BCS.N    ??GUI_DrawFont24_2
//  467 				    {
//  468 							for(j=0;j<8;j++)
        MOVS     R0,#+0
        MOV      R8,R0
??GUI_DrawFont24_4:
        UXTB     R8,R8            ;; ZeroExt  R8,R8,#+24,#+24
        CMP      R8,#+8
        BCS.N    ??GUI_DrawFont24_5
//  469 							{
//  470 								if(!mode) //非叠加方式
        UXTB     R11,R11          ;; ZeroExt  R11,R11,#+24,#+24
        CMP      R11,#+0
        BNE.N    ??GUI_DrawFont24_6
//  471 								{
//  472 									if(tfont24[k].Msk[i]&(0x80>>j))	LCD_WR_DATA_16Bit(fc);
        UXTB     R7,R7            ;; ZeroExt  R7,R7,#+24,#+24
        UXTH     R9,R9            ;; ZeroExt  R9,R9,#+16,#+16
        MOVS     R0,#+74
        LDR.W    R1,??DataTable11_7
        MLA      R0,R0,R9,R1
        ADDS     R0,R7,R0
        LDRB     R0,[R0, #+2]
        MOVS     R1,#+128
        ASRS     R1,R1,R8
        TST      R0,R1
        BEQ.N    ??GUI_DrawFont24_7
        MOVS     R0,R6
        UXTH     R0,R0            ;; ZeroExt  R0,R0,#+16,#+16
        BL       LCD_WR_DATA_16Bit
        B.N      ??GUI_DrawFont24_8
//  473 									else LCD_WR_DATA_16Bit(bc);
??GUI_DrawFont24_7:
        LDRH     R0,[SP, #+8]
        BL       LCD_WR_DATA_16Bit
        B.N      ??GUI_DrawFont24_8
//  474 								}
//  475 							else
//  476 							{
//  477 								POINT_COLOR=fc;
??GUI_DrawFont24_6:
        LDR.W    R0,??DataTable11_1
        STRH     R6,[R0, #+0]
//  478 								if(tfont24[k].Msk[i]&(0x80>>j))	LCD_DrawPoint(x,y);//画一个点
        UXTB     R7,R7            ;; ZeroExt  R7,R7,#+24,#+24
        UXTH     R9,R9            ;; ZeroExt  R9,R9,#+16,#+16
        MOVS     R0,#+74
        LDR.W    R1,??DataTable11_7
        MLA      R0,R0,R9,R1
        ADDS     R0,R7,R0
        LDRB     R0,[R0, #+2]
        MOVS     R1,#+128
        ASRS     R1,R1,R8
        TST      R0,R1
        BEQ.N    ??GUI_DrawFont24_9
        MOVS     R1,R5
        UXTH     R1,R1            ;; ZeroExt  R1,R1,#+16,#+16
        MOVS     R0,R4
        UXTH     R0,R0            ;; ZeroExt  R0,R0,#+16,#+16
        BL       LCD_DrawPoint
//  479 								x++;
??GUI_DrawFont24_9:
        ADDS     R4,R4,#+1
//  480 								if((x-x0)==24)
        UXTH     R4,R4            ;; ZeroExt  R4,R4,#+16,#+16
        UXTH     R10,R10          ;; ZeroExt  R10,R10,#+16,#+16
        SUBS     R0,R4,R10
        CMP      R0,#+24
        BNE.N    ??GUI_DrawFont24_8
//  481 								{
//  482 									x=x0;
        MOV      R4,R10
//  483 									y++;
        ADDS     R5,R5,#+1
//  484 									break;
        B.N      ??GUI_DrawFont24_5
//  485 								}
//  486 							}
//  487 						}
??GUI_DrawFont24_8:
        ADDS     R8,R8,#+1
        B.N      ??GUI_DrawFont24_4
//  488 					}
??GUI_DrawFont24_5:
        ADDS     R7,R7,#+1
        B.N      ??GUI_DrawFont24_3
//  489 					
//  490 					
//  491 				}				  	
//  492 				continue;  //查找到对应点阵字库立即退出，防止多个汉字重复取模带来影响
//  493 			}
??GUI_DrawFont24_2:
        ADDS     R9,R9,#+1
        B.N      ??GUI_DrawFont24_0
//  494 
//  495 	LCD_SetWindows(0,0,lcddev.width-1,lcddev.height-1);//恢复窗口为全屏  
??GUI_DrawFont24_1:
        LDR.W    R0,??DataTable11
        LDRH     R0,[R0, #+2]
        SUBS     R3,R0,#+1
        UXTH     R3,R3            ;; ZeroExt  R3,R3,#+16,#+16
        LDR.N    R0,??DataTable11
        LDRH     R0,[R0, #+0]
        SUBS     R2,R0,#+1
        UXTH     R2,R2            ;; ZeroExt  R2,R2,#+16,#+16
        MOVS     R1,#+0
        MOVS     R0,#+0
        BL       LCD_SetWindows
//  496 }
        POP      {R0-R2,R4-R11,PC}  ;; return
//  497 
//  498 //******************************************************************
//  499 //函数名：  GUI_DrawFont32
//  500 //功能：    显示单个32X32中文字体
//  501 //输入参数：x,y :起点坐标
//  502 //			fc:前置画笔颜色
//  503 //			bc:背景颜色	 
//  504 //			s:字符串地址
//  505 //			mode:模式	0,填充模式;1,叠加模式
//  506 //返回值：  无
//  507 //修改记录：无
//  508 //****************************************************************** 

        SECTION `.text`:CODE:NOROOT(1)
        THUMB
//  509 void GUI_DrawFont32(u16 x, u16 y, u16 fc, u16 bc, u8 *s,u8 mode)
//  510 {
GUI_DrawFont32:
        PUSH     {R3-R11,LR}
        SUB      SP,SP,#+8
        MOVS     R4,R0
        MOVS     R5,R1
        MOVS     R6,R2
        LDR      R11,[SP, #+52]
//  511 	u8 i,j;
//  512 	u16 k;
//  513 	u16 HZnum;
//  514 	u16 x0=x;
        MOV      R10,R4
//  515 	HZnum=sizeof(tfont32)/sizeof(typFNT_GB32);	//自动统计汉字数目
        MOVS     R0,#+1
        STRH     R0,[SP, #+0]
//  516 	for (k=0;k<HZnum;k++) 
        MOVS     R0,#+0
        MOV      R9,R0
??GUI_DrawFont32_0:
        LDRH     R0,[SP, #+0]
        UXTH     R9,R9            ;; ZeroExt  R9,R9,#+16,#+16
        CMP      R9,R0
        BCS.N    ??GUI_DrawFont32_1
//  517 			{
//  518 			  if ((tfont32[k].Index[0]==*(s))&&(tfont32[k].Index[1]==*(s+1)))
        UXTH     R9,R9            ;; ZeroExt  R9,R9,#+16,#+16
        MOVS     R0,#+130
        LDR.N    R1,??DataTable11_8
        MLA      R0,R0,R9,R1
        LDRB     R0,[R0, #+0]
        LDR      R1,[SP, #+48]
        LDRB     R1,[R1, #+0]
        CMP      R0,R1
        BNE.N    ??GUI_DrawFont32_2
        UXTH     R9,R9            ;; ZeroExt  R9,R9,#+16,#+16
        MOVS     R0,#+130
        LDR.N    R1,??DataTable11_8
        MLA      R0,R0,R9,R1
        LDRB     R0,[R0, #+1]
        LDR      R1,[SP, #+48]
        LDRB     R1,[R1, #+1]
        CMP      R0,R1
        BNE.N    ??GUI_DrawFont32_2
//  519 			  { 	LCD_SetWindows(x,y,x+32-1,y+32-1);
        ADDS     R3,R5,#+31
        UXTH     R3,R3            ;; ZeroExt  R3,R3,#+16,#+16
        ADDS     R2,R4,#+31
        UXTH     R2,R2            ;; ZeroExt  R2,R2,#+16,#+16
        MOVS     R1,R5
        UXTH     R1,R1            ;; ZeroExt  R1,R1,#+16,#+16
        MOVS     R0,R4
        UXTH     R0,R0            ;; ZeroExt  R0,R0,#+16,#+16
        BL       LCD_SetWindows
//  520 				    for(i=0;i<32*4;i++)
        MOVS     R0,#+0
        MOVS     R7,R0
??GUI_DrawFont32_3:
        UXTB     R7,R7            ;; ZeroExt  R7,R7,#+24,#+24
        CMP      R7,#+128
        BCS.N    ??GUI_DrawFont32_2
//  521 				    {
//  522 						for(j=0;j<8;j++)
        MOVS     R0,#+0
        MOV      R8,R0
??GUI_DrawFont32_4:
        UXTB     R8,R8            ;; ZeroExt  R8,R8,#+24,#+24
        CMP      R8,#+8
        BCS.N    ??GUI_DrawFont32_5
//  523 				    	{
//  524 							if(!mode) //非叠加方式
        UXTB     R11,R11          ;; ZeroExt  R11,R11,#+24,#+24
        CMP      R11,#+0
        BNE.N    ??GUI_DrawFont32_6
//  525 							{
//  526 								if(tfont32[k].Msk[i]&(0x80>>j))	LCD_WR_DATA_16Bit(fc);
        UXTB     R7,R7            ;; ZeroExt  R7,R7,#+24,#+24
        UXTH     R9,R9            ;; ZeroExt  R9,R9,#+16,#+16
        MOVS     R0,#+130
        LDR.N    R1,??DataTable11_8
        MLA      R0,R0,R9,R1
        ADDS     R0,R7,R0
        LDRB     R0,[R0, #+2]
        MOVS     R1,#+128
        ASRS     R1,R1,R8
        TST      R0,R1
        BEQ.N    ??GUI_DrawFont32_7
        MOVS     R0,R6
        UXTH     R0,R0            ;; ZeroExt  R0,R0,#+16,#+16
        BL       LCD_WR_DATA_16Bit
        B.N      ??GUI_DrawFont32_8
//  527 								else LCD_WR_DATA_16Bit(bc);
??GUI_DrawFont32_7:
        LDRH     R0,[SP, #+8]
        BL       LCD_WR_DATA_16Bit
        B.N      ??GUI_DrawFont32_8
//  528 							}
//  529 							else
//  530 							{
//  531 								POINT_COLOR=fc;
??GUI_DrawFont32_6:
        LDR.N    R0,??DataTable11_1
        STRH     R6,[R0, #+0]
//  532 								if(tfont32[k].Msk[i]&(0x80>>j))	LCD_DrawPoint(x,y);//画一个点
        UXTB     R7,R7            ;; ZeroExt  R7,R7,#+24,#+24
        UXTH     R9,R9            ;; ZeroExt  R9,R9,#+16,#+16
        MOVS     R0,#+130
        LDR.N    R1,??DataTable11_8
        MLA      R0,R0,R9,R1
        ADDS     R0,R7,R0
        LDRB     R0,[R0, #+2]
        MOVS     R1,#+128
        ASRS     R1,R1,R8
        TST      R0,R1
        BEQ.N    ??GUI_DrawFont32_9
        MOVS     R1,R5
        UXTH     R1,R1            ;; ZeroExt  R1,R1,#+16,#+16
        MOVS     R0,R4
        UXTH     R0,R0            ;; ZeroExt  R0,R0,#+16,#+16
        BL       LCD_DrawPoint
//  533 								x++;
??GUI_DrawFont32_9:
        ADDS     R4,R4,#+1
//  534 								if((x-x0)==32)
        UXTH     R4,R4            ;; ZeroExt  R4,R4,#+16,#+16
        UXTH     R10,R10          ;; ZeroExt  R10,R10,#+16,#+16
        SUBS     R0,R4,R10
        CMP      R0,#+32
        BNE.N    ??GUI_DrawFont32_8
//  535 								{
//  536 									x=x0;
        MOV      R4,R10
//  537 									y++;
        ADDS     R5,R5,#+1
//  538 									break;
        B.N      ??GUI_DrawFont32_5
//  539 								}
//  540 							}
//  541 						}
??GUI_DrawFont32_8:
        ADDS     R8,R8,#+1
        B.N      ??GUI_DrawFont32_4
//  542 					}
??GUI_DrawFont32_5:
        ADDS     R7,R7,#+1
        B.N      ??GUI_DrawFont32_3
//  543 					
//  544 					
//  545 				}				  	
//  546 				continue;  //查找到对应点阵字库立即退出，防止多个汉字重复取模带来影响
//  547 			}
??GUI_DrawFont32_2:
        ADDS     R9,R9,#+1
        B.N      ??GUI_DrawFont32_0
//  548 	
//  549 	LCD_SetWindows(0,0,lcddev.width-1,lcddev.height-1);//恢复窗口为全屏  
??GUI_DrawFont32_1:
        LDR.N    R0,??DataTable11
        LDRH     R0,[R0, #+2]
        SUBS     R3,R0,#+1
        UXTH     R3,R3            ;; ZeroExt  R3,R3,#+16,#+16
        LDR.N    R0,??DataTable11
        LDRH     R0,[R0, #+0]
        SUBS     R2,R0,#+1
        UXTH     R2,R2            ;; ZeroExt  R2,R2,#+16,#+16
        MOVS     R1,#+0
        MOVS     R0,#+0
        BL       LCD_SetWindows
//  550 } 
        POP      {R0-R2,R4-R11,PC}  ;; return
//  551 
//  552 //******************************************************************
//  553 //函数名：  Show_Str
//  554 //功能：    显示一个字符串,包含中英文显示
//  555 //输入参数：x,y :起点坐标
//  556 // 			fc:前置画笔颜色
//  557 //			bc:背景颜色
//  558 //			str :字符串	 
//  559 //			size:字体大小
//  560 //			mode:模式	0,填充模式;1,叠加模式
//  561 //返回值：  无
//  562 //修改记录：无
//  563 //******************************************************************    	   		   

        SECTION `.text`:CODE:NOROOT(1)
        THUMB
//  564 void Show_Str(u16 x, u16 y, u16 fc, u16 bc, u8 *str,u8 size,u8 mode)
//  565 {					
Show_Str:
        PUSH     {R4-R11,LR}
        SUB      SP,SP,#+20
        MOVS     R6,R0
        MOVS     R7,R1
        MOV      R8,R2
        MOV      R9,R3
        LDR      R10,[SP, #+56]
        LDR      R4,[SP, #+60]
        LDR      R5,[SP, #+64]
//  566 	u16 x0=x;							  	  
        STRH     R6,[SP, #+12]
//  567   	u8 bHz=0;     //字符或者中文 
        MOVS     R11,#+0
//  568     while(*str!=0)//数据未结束
??Show_Str_0:
        LDRB     R0,[R10, #+0]
        CMP      R0,#+0
        BEQ.W    ??Show_Str_1
//  569     { 
//  570         if(!bHz)
        UXTB     R11,R11          ;; ZeroExt  R11,R11,#+24,#+24
        CMP      R11,#+0
        BNE.N    ??Show_Str_2
//  571         {
//  572 			if(x>(lcddev.width-size/2)||y>(lcddev.height-size)) 
        LDR.N    R0,??DataTable11
        LDRH     R0,[R0, #+0]
        UXTB     R4,R4            ;; ZeroExt  R4,R4,#+24,#+24
        MOVS     R1,#+2
        SDIV     R1,R4,R1
        SUBS     R0,R0,R1
        UXTH     R6,R6            ;; ZeroExt  R6,R6,#+16,#+16
        CMP      R0,R6
        BLT.N    ??Show_Str_3
        LDR.N    R0,??DataTable11
        LDRH     R0,[R0, #+2]
        UXTB     R4,R4            ;; ZeroExt  R4,R4,#+24,#+24
        SUBS     R0,R0,R4
        UXTH     R7,R7            ;; ZeroExt  R7,R7,#+16,#+16
        CMP      R0,R7
        BGE.N    ??Show_Str_4
//  573 			return; 
??Show_Str_3:
        B.N      ??Show_Str_5
//  574 	        if(*str>0x80)bHz=1;//中文 
??Show_Str_4:
        LDRB     R0,[R10, #+0]
        CMP      R0,#+129
        BCC.N    ??Show_Str_6
        MOVS     R0,#+1
        MOV      R11,R0
        B.N      ??Show_Str_0
//  575 	        else              //字符
//  576 	        {          
//  577 		        if(*str==0x0D)//换行符号
??Show_Str_6:
        LDRB     R0,[R10, #+0]
        CMP      R0,#+13
        BNE.N    ??Show_Str_7
//  578 		        {         
//  579 		            y+=size;
        UXTAB    R7,R7,R4
//  580 					x=x0;
        LDRH     R0,[SP, #+12]
        MOVS     R6,R0
//  581 		            str++; 
        ADDS     R10,R10,#+1
        B.N      ??Show_Str_8
//  582 		        }  
//  583 		        else
//  584 				{
//  585 					if(size==12||size==16)
??Show_Str_7:
        UXTB     R4,R4            ;; ZeroExt  R4,R4,#+24,#+24
        CMP      R4,#+12
        BEQ.N    ??Show_Str_9
        UXTB     R4,R4            ;; ZeroExt  R4,R4,#+24,#+24
        CMP      R4,#+16
        BNE.N    ??Show_Str_10
//  586 					{  
//  587 					LCD_ShowChar(x,y,fc,bc,*str,size,mode);
??Show_Str_9:
        UXTB     R5,R5            ;; ZeroExt  R5,R5,#+24,#+24
        STR      R5,[SP, #+8]
        UXTB     R4,R4            ;; ZeroExt  R4,R4,#+24,#+24
        STR      R4,[SP, #+4]
        LDRB     R0,[R10, #+0]
        STR      R0,[SP, #+0]
        MOV      R3,R9
        UXTH     R3,R3            ;; ZeroExt  R3,R3,#+16,#+16
        MOV      R2,R8
        UXTH     R2,R2            ;; ZeroExt  R2,R2,#+16,#+16
        MOVS     R1,R7
        UXTH     R1,R1            ;; ZeroExt  R1,R1,#+16,#+16
        MOVS     R0,R6
        UXTH     R0,R0            ;; ZeroExt  R0,R0,#+16,#+16
        BL       LCD_ShowChar
//  588 					x+=size/2; //字符,为全字的一半 
        UXTB     R4,R4            ;; ZeroExt  R4,R4,#+24,#+24
        MOVS     R0,#+2
        SDIV     R0,R4,R0
        ADDS     R6,R0,R6
        B.N      ??Show_Str_8
//  589 					}
//  590 					else//字库中没有集成16X32的英文字体,用8X16代替
//  591 					{
//  592 					 	LCD_ShowChar(x,y,fc,bc,*str,16,mode);
??Show_Str_10:
        UXTB     R5,R5            ;; ZeroExt  R5,R5,#+24,#+24
        STR      R5,[SP, #+8]
        MOVS     R0,#+16
        STR      R0,[SP, #+4]
        LDRB     R0,[R10, #+0]
        STR      R0,[SP, #+0]
        MOV      R3,R9
        UXTH     R3,R3            ;; ZeroExt  R3,R3,#+16,#+16
        MOV      R2,R8
        UXTH     R2,R2            ;; ZeroExt  R2,R2,#+16,#+16
        MOVS     R1,R7
        UXTH     R1,R1            ;; ZeroExt  R1,R1,#+16,#+16
        MOVS     R0,R6
        UXTH     R0,R0            ;; ZeroExt  R0,R0,#+16,#+16
        BL       LCD_ShowChar
//  593 						x+=8; //字符,为全字的一半 
        ADDS     R6,R6,#+8
//  594 					}
//  595 				} 
//  596 				str++; 
??Show_Str_8:
        ADDS     R10,R10,#+1
        B.N      ??Show_Str_0
//  597 		        
//  598 	        }
//  599         }else//中文 
//  600         {   
//  601 			if(x>(lcddev.width-size)||y>(lcddev.height-size)) 
??Show_Str_2:
        LDR.N    R0,??DataTable11
        LDRH     R0,[R0, #+0]
        UXTB     R4,R4            ;; ZeroExt  R4,R4,#+24,#+24
        SUBS     R0,R0,R4
        UXTH     R6,R6            ;; ZeroExt  R6,R6,#+16,#+16
        CMP      R0,R6
        BLT.N    ??Show_Str_11
        LDR.N    R0,??DataTable11
        LDRH     R0,[R0, #+2]
        UXTB     R4,R4            ;; ZeroExt  R4,R4,#+24,#+24
        SUBS     R0,R0,R4
        UXTH     R7,R7            ;; ZeroExt  R7,R7,#+16,#+16
        CMP      R0,R7
        BGE.N    ??Show_Str_12
//  602 			return;  
??Show_Str_11:
        B.N      ??Show_Str_5
//  603             bHz=0;//有汉字库    
??Show_Str_12:
        MOVS     R0,#+0
        MOV      R11,R0
//  604 			if(size==32)
        UXTB     R4,R4            ;; ZeroExt  R4,R4,#+24,#+24
        CMP      R4,#+32
        BNE.N    ??Show_Str_13
//  605 			GUI_DrawFont32(x,y,fc,bc,str,mode);	 	
        UXTB     R5,R5            ;; ZeroExt  R5,R5,#+24,#+24
        STR      R5,[SP, #+4]
        STR      R10,[SP, #+0]
        MOV      R3,R9
        UXTH     R3,R3            ;; ZeroExt  R3,R3,#+16,#+16
        MOV      R2,R8
        UXTH     R2,R2            ;; ZeroExt  R2,R2,#+16,#+16
        MOVS     R1,R7
        UXTH     R1,R1            ;; ZeroExt  R1,R1,#+16,#+16
        MOVS     R0,R6
        UXTH     R0,R0            ;; ZeroExt  R0,R0,#+16,#+16
        BL       GUI_DrawFont32
        B.N      ??Show_Str_14
//  606 			else if(size==24)
??Show_Str_13:
        UXTB     R4,R4            ;; ZeroExt  R4,R4,#+24,#+24
        CMP      R4,#+24
        BNE.N    ??Show_Str_15
//  607 			GUI_DrawFont24(x,y,fc,bc,str,mode);	
        UXTB     R5,R5            ;; ZeroExt  R5,R5,#+24,#+24
        STR      R5,[SP, #+4]
        STR      R10,[SP, #+0]
        MOV      R3,R9
        UXTH     R3,R3            ;; ZeroExt  R3,R3,#+16,#+16
        MOV      R2,R8
        UXTH     R2,R2            ;; ZeroExt  R2,R2,#+16,#+16
        MOVS     R1,R7
        UXTH     R1,R1            ;; ZeroExt  R1,R1,#+16,#+16
        MOVS     R0,R6
        UXTH     R0,R0            ;; ZeroExt  R0,R0,#+16,#+16
        BL       GUI_DrawFont24
        B.N      ??Show_Str_14
//  608 			else
//  609 			GUI_DrawFont16(x,y,fc,bc,str,mode);
??Show_Str_15:
        UXTB     R5,R5            ;; ZeroExt  R5,R5,#+24,#+24
        STR      R5,[SP, #+4]
        STR      R10,[SP, #+0]
        MOV      R3,R9
        UXTH     R3,R3            ;; ZeroExt  R3,R3,#+16,#+16
        MOV      R2,R8
        UXTH     R2,R2            ;; ZeroExt  R2,R2,#+16,#+16
        MOVS     R1,R7
        UXTH     R1,R1            ;; ZeroExt  R1,R1,#+16,#+16
        MOVS     R0,R6
        UXTH     R0,R0            ;; ZeroExt  R0,R0,#+16,#+16
        BL       GUI_DrawFont16
//  610 				
//  611 	        str+=2; 
??Show_Str_14:
        ADDS     R10,R10,#+2
//  612 	        x+=size;//下一个汉字偏移	    
        UXTAB    R6,R6,R4
        B.N      ??Show_Str_0
//  613         }						 
//  614     }   
//  615 }
??Show_Str_1:
??Show_Str_5:
        ADD      SP,SP,#+20
        POP      {R4-R11,PC}      ;; return
//  616 
//  617 //******************************************************************
//  618 //函数名：  Gui_StrCenter
//  619 //功能：    居中显示一个字符串,包含中英文显示
//  620 //输入参数：x,y :起点坐标
//  621 // 			fc:前置画笔颜色
//  622 //			bc:背景颜色
//  623 //			str :字符串	 
//  624 //			size:字体大小
//  625 //			mode:模式	0,填充模式;1,叠加模式
//  626 //返回值：  无
//  627 //修改记录：无
//  628 //******************************************************************   

        SECTION `.text`:CODE:NOROOT(1)
        THUMB
//  629 void Gui_StrCenter(u16 x, u16 y, u16 fc, u16 bc, u8 *str,u8 size,u8 mode)
//  630 {
Gui_StrCenter:
        PUSH     {R0,R4-R11,LR}
        SUB      SP,SP,#+16
        MOVS     R6,R1
        MOVS     R7,R2
        MOV      R8,R3
        LDR      R9,[SP, #+56]
        LDR      R4,[SP, #+60]
        LDR      R5,[SP, #+64]
//  631 	u16 len=strlen((const char *)str);
        MOV      R0,R9
        BL       strlen
        MOV      R10,R0
//  632 	u16 x1=(lcddev.width-len*8)/2;
        LDR.N    R0,??DataTable11
        LDRH     R0,[R0, #+0]
        UXTH     R10,R10          ;; ZeroExt  R10,R10,#+16,#+16
        SUBS     R0,R0,R10, LSL #+3
        MOVS     R1,#+2
        SDIV     R11,R0,R1
//  633 	Show_Str(x+x1,y,fc,bc,str,size,mode);
        UXTB     R5,R5            ;; ZeroExt  R5,R5,#+24,#+24
        STR      R5,[SP, #+8]
        UXTB     R4,R4            ;; ZeroExt  R4,R4,#+24,#+24
        STR      R4,[SP, #+4]
        STR      R9,[SP, #+0]
        MOV      R3,R8
        UXTH     R3,R3            ;; ZeroExt  R3,R3,#+16,#+16
        MOVS     R2,R7
        UXTH     R2,R2            ;; ZeroExt  R2,R2,#+16,#+16
        MOVS     R1,R6
        UXTH     R1,R1            ;; ZeroExt  R1,R1,#+16,#+16
        LDRH     R0,[SP, #+16]
        ADDS     R0,R11,R0
        UXTH     R0,R0            ;; ZeroExt  R0,R0,#+16,#+16
        BL       Show_Str
//  634 } 
        ADD      SP,SP,#+20
        POP      {R4-R11,PC}      ;; return
//  635  
//  636 //******************************************************************
//  637 //函数名：  Gui_Drawbmp16
//  638 //功能：    显示一副16位BMP图像
//  639 //输入参数：x,y :起点坐标
//  640 // 			*p :图像数组起始地址
//  641 //返回值：  无
//  642 //修改记录：无
//  643 //******************************************************************  

        SECTION `.text`:CODE:NOROOT(1)
        THUMB
//  644 void Gui_Drawbmp16(u16 x,u16 y,const unsigned char *p) //显示40*40 QQ图片
//  645 {
Gui_Drawbmp16:
        PUSH     {R3-R9,LR}
        MOVS     R4,R0
        MOVS     R5,R1
        MOVS     R6,R2
//  646   	int i; 
//  647 	unsigned char picH,picL; 
//  648 	LCD_SetWindows(x,y,x+40-1,y+40-1);//窗口设置
        ADDS     R3,R5,#+39
        UXTH     R3,R3            ;; ZeroExt  R3,R3,#+16,#+16
        ADDS     R2,R4,#+39
        UXTH     R2,R2            ;; ZeroExt  R2,R2,#+16,#+16
        MOVS     R1,R5
        UXTH     R1,R1            ;; ZeroExt  R1,R1,#+16,#+16
        MOVS     R0,R4
        UXTH     R0,R0            ;; ZeroExt  R0,R0,#+16,#+16
        BL       LCD_SetWindows
//  649     for(i=0;i<40*40;i++)
        MOVS     R0,#+0
        MOVS     R7,R0
??Gui_Drawbmp16_0:
        CMP      R7,#+1600
        BGE.N    ??Gui_Drawbmp16_1
//  650 	{	
//  651 	 	picL=*(p+i*2);	//数据低位在前
        LDRB     R0,[R6, R7, LSL #+1]
        MOV      R9,R0
//  652 		picH=*(p+i*2+1);				
        ADDS     R0,R6,R7, LSL #+1
        LDRB     R0,[R0, #+1]
        MOV      R8,R0
//  653 		LCD_WR_DATA_16Bit(picH<<8|picL);  						
        UXTB     R8,R8            ;; ZeroExt  R8,R8,#+24,#+24
        UXTB     R9,R9            ;; ZeroExt  R9,R9,#+24,#+24
        ORRS     R0,R9,R8, LSL #+8
        UXTH     R0,R0            ;; ZeroExt  R0,R0,#+16,#+16
        BL       LCD_WR_DATA_16Bit
//  654 	}	
        ADDS     R7,R7,#+1
        B.N      ??Gui_Drawbmp16_0
//  655 	LCD_SetWindows(0,0,lcddev.width-1,lcddev.height-1);//恢复显示窗口为全屏	
??Gui_Drawbmp16_1:
        LDR.N    R0,??DataTable11
        LDRH     R0,[R0, #+2]
        SUBS     R3,R0,#+1
        UXTH     R3,R3            ;; ZeroExt  R3,R3,#+16,#+16
        LDR.N    R0,??DataTable11
        LDRH     R0,[R0, #+0]
        SUBS     R2,R0,#+1
        UXTH     R2,R2            ;; ZeroExt  R2,R2,#+16,#+16
        MOVS     R1,#+0
        MOVS     R0,#+0
        BL       LCD_SetWindows
//  656 
//  657 }
        POP      {R0,R4-R9,PC}    ;; return

        SECTION `.text`:CODE:NOROOT(2)
        SECTION_TYPE SHT_PROGBITS, 0
        DATA
??DataTable11:
        DC32     lcddev

        SECTION `.text`:CODE:NOROOT(2)
        SECTION_TYPE SHT_PROGBITS, 0
        DATA
??DataTable11_1:
        DC32     POINT_COLOR

        SECTION `.text`:CODE:NOROOT(2)
        SECTION_TYPE SHT_PROGBITS, 0
        DATA
??DataTable11_2:
        DC32     asc2_1206

        SECTION `.text`:CODE:NOROOT(2)
        SECTION_TYPE SHT_PROGBITS, 0
        DATA
??DataTable11_3:
        DC32     asc2_1608

        SECTION `.text`:CODE:NOROOT(2)
        SECTION_TYPE SHT_PROGBITS, 0
        DATA
??DataTable11_4:
        DC32     asc2_2412

        SECTION `.text`:CODE:NOROOT(2)
        SECTION_TYPE SHT_PROGBITS, 0
        DATA
??DataTable11_5:
        DC32     BACK_COLOR

        SECTION `.text`:CODE:NOROOT(2)
        SECTION_TYPE SHT_PROGBITS, 0
        DATA
??DataTable11_6:
        DC32     tfont16

        SECTION `.text`:CODE:NOROOT(2)
        SECTION_TYPE SHT_PROGBITS, 0
        DATA
??DataTable11_7:
        DC32     tfont24

        SECTION `.text`:CODE:NOROOT(2)
        SECTION_TYPE SHT_PROGBITS, 0
        DATA
??DataTable11_8:
        DC32     tfont32

        SECTION `.iar_vfe_header`:DATA:REORDER:NOALLOC:NOROOT(2)
        SECTION_TYPE SHT_PROGBITS, 0
        DATA
        DC32 0

        SECTION __DLIB_PERTHREAD:DATA:REORDER:NOROOT(0)
        SECTION_TYPE SHT_PROGBITS, 0

        SECTION __DLIB_PERTHREAD_init:DATA:REORDER:NOROOT(0)
        SECTION_TYPE SHT_PROGBITS, 0

        END
// 
// 4 356 bytes in section .rodata
// 3 354 bytes in section .text
// 
// 3 354 bytes of CODE  memory
// 4 356 bytes of CONST memory
//
//Errors: none
//Warnings: none
